(dp1
S'files'
p2
(dp3
S'_usr_local_lib_python2_7_dist-packages_django_core_files_temp'
p4
(dp5
S'index'
p6
(dp7
S'html_filename'
p8
S'_usr_local_lib_python2_7_dist-packages_django_core_files_temp.html'
p9
sS'name'
p10
S'/usr/local/lib/python2.7/dist-packages/django/core/files/temp'
p11
sS'nums'
p12
ccopy_reg
_reconstructor
p13
(ccoverage.results
Numbers
p14
c__builtin__
object
p15
NtRp16
(dp17
S'n_files'
p18
I1
sS'n_branches'
p19
I0
sS'n_statements'
p20
I35
sS'n_excluded'
p21
I0
sS'n_partial_branches'
p22
I0
sS'n_missing'
p23
I28
sS'n_missing_branches'
p24
I0
sbssS'hash'
p25
S'v\x82\x8b\xae\x03\t\xaa;\x0c\xa0\x1e\xa0.\xb9\xac='
p26
ssS'_usr_local_lib_python2_7_dist-packages_phonenumbers_data_alt_format_84'
p27
(dp28
g6
(dp29
g8
S'_usr_local_lib_python2_7_dist-packages_phonenumbers_data_alt_format_84.html'
p30
sg10
S'/usr/local/lib/python2.7/dist-packages/phonenumbers/data/alt_format_84'
p31
sg12
g13
(g14
g15
NtRp32
(dp33
g18
I1
sg19
I0
sg20
I2
sg21
I0
sg22
I0
sg23
I0
sg24
I0
sbssg25
S'\xf3\xda-c\x98\x19K\x05\xfc\xf6\x02\x1c\x13\x93\x903'
p34
ssS'_usr_local_lib_python2_7_dist-packages_django_core_files_utils'
p35
(dp36
g6
(dp37
g8
S'_usr_local_lib_python2_7_dist-packages_django_core_files_utils.html'
p38
sg10
S'/usr/local/lib/python2.7/dist-packages/django/core/files/utils'
p39
sg12
g13
(g14
g15
NtRp40
(dp41
g18
I1
sg19
I0
sg20
I19
sg21
I0
sg22
I0
sg23
I1
sg24
I0
sbssg25
S'\x91@)\xe4(\x81\xd6\xb8\x9b\x16\xc4\xeeh\x11e\xff'
p42
ssS'_usr_local_lib_python2_7_dist-packages_phonenumbers_data_alt_format_81'
p43
(dp44
g6
(dp45
g8
S'_usr_local_lib_python2_7_dist-packages_phonenumbers_data_alt_format_81.html'
p46
sg10
S'/usr/local/lib/python2.7/dist-packages/phonenumbers/data/alt_format_81'
p47
sg12
g13
(g14
g15
NtRp48
(dp49
g18
I1
sg19
I0
sg20
I2
sg21
I0
sg22
I0
sg23
I0
sg24
I0
sbssg25
S'p\xdf\xd4\x04\x08\x87\x89k[\x02\x8f\xcd\xf6\xe5\xdb+'
p50
ssS'_usr_local_lib_python2_7_dist-packages_django_contrib_admin___init__'
p51
(dp52
g6
(dp53
g8
S'_usr_local_lib_python2_7_dist-packages_django_contrib_admin___init__.html'
p54
sg10
S'/usr/local/lib/python2.7/dist-packages/django/contrib/admin/__init__'
p55
sg12
g13
(g14
g15
NtRp56
(dp57
g18
I1
sg19
I0
sg20
I10
sg21
I0
sg22
I0
sg23
I0
sg24
I0
sbssg25
S'\x99"\xce1\xc2\x1f|8d,hO\x9c\xa8\'z'
p58
ssS'_usr_local_lib_python2_7_dist-packages_django_contrib_sites___init__'
p59
(dp60
g6
(dp61
g8
S'_usr_local_lib_python2_7_dist-packages_django_contrib_sites___init__.html'
p62
sg10
S'/usr/local/lib/python2.7/dist-packages/django/contrib/sites/__init__'
p63
sg12
g13
(g14
g15
NtRp64
(dp65
g18
I1
sg19
I0
sg20
I1
sg21
I0
sg22
I0
sg23
I0
sg24
I0
sbssg25
S'\x93\xb7\xc1\xce{;\x9a\xad\x93U\x0cm\xf2\xbc\xd0v'
p66
ssS'_usr_local_lib_python2_7_dist-packages_django_utils_html'
p67
(dp68
g6
(dp69
g8
S'_usr_local_lib_python2_7_dist-packages_django_utils_html.html'
p70
sg10
S'/usr/local/lib/python2.7/dist-packages/django/utils/html'
p71
sg12
g13
(g14
g15
NtRp72
(dp73
g18
I1
sg19
I0
sg20
I200
sg21
I0
sg22
I0
sg23
I137
sg24
I0
sbssg25
S'\xa6\rw\xfd\xd2J]1\xd7\xdbw\xa0*\x9d\xc3\xeb'
p74
ssS'_usr_local_lib_python2_7_dist-packages_django_test_client'
p75
(dp76
g6
(dp77
g8
S'_usr_local_lib_python2_7_dist-packages_django_test_client.html'
p78
sg10
S'/usr/local/lib/python2.7/dist-packages/django/test/client'
p79
sg12
g13
(g14
g15
NtRp80
(dp81
g18
I1
sg19
I0
sg20
I315
sg21
I0
sg22
I0
sg23
I240
sg24
I0
sbssg25
S'\x12\x0e\x9c\x14\xa8\xf0J\x96;\xa9\xcbI\x979\xe9\xaf'
p82
ssS'_usr_local_lib_python2_7_dist-packages_django_core_management_base'
p83
(dp84
g6
(dp85
S'html_filename'
p86
S'_usr_local_lib_python2_7_dist-packages_django_core_management_base.html'
p87
sS'name'
p88
S'/usr/local/lib/python2.7/dist-packages/django/core/management/base'
p89
sS'nums'
p90
g13
(g14
g15
NtRp91
(dp92
g18
I1
sg19
I0
sg20
I252
sg21
I0
sg22
I0
sg23
I120
sg24
I0
sbssg25
S'S:\x9a\x92\x92\xad(.\xcabw\xf5\x0b\xaf\xc1\xa1'
p93
ssS'_usr_local_lib_python2_7_dist-packages_django_db_backends_sqlite3_utils'
p94
(dp95
g6
(dp96
g8
S'_usr_local_lib_python2_7_dist-packages_django_db_backends_sqlite3_utils.html'
p97
sg10
S'/usr/local/lib/python2.7/dist-packages/django/db/backends/sqlite3/utils'
p98
sg12
g13
(g14
g15
NtRp99
(dp100
g18
I1
sg19
I0
sg20
I8
sg21
I0
sg22
I0
sg23
I4
sg24
I0
sbssg25
S'\x12\x0e1K\x8f\xb2>#&\xdf4]\xa0\xb0\xb4\x83'
p101
ssS'_usr_local_lib_python2_7_dist-packages_django_template_backends_django'
p102
(dp103
g6
(dp104
g8
S'_usr_local_lib_python2_7_dist-packages_django_template_backends_django.html'
p105
sg10
S'/usr/local/lib/python2.7/dist-packages/django/template/backends/django'
p106
sg12
g13
(g14
g15
NtRp107
(dp108
g18
I1
sg19
I0
sg20
I34
sg21
I0
sg22
I0
sg23
I18
sg24
I0
sbssg25
S"\xf3r\x1e\x01`\x02\x83m\x13\x16\x04'\xc0\xd9\xc1\x86"
p109
ssS'_usr_local_lib_python2_7_dist-packages_django_forms_models'
p110
(dp111
g6
(dp112
g8
S'_usr_local_lib_python2_7_dist-packages_django_forms_models.html'
p113
sg10
S'/usr/local/lib/python2.7/dist-packages/django/forms/models'
p114
sg12
g13
(g14
g15
NtRp115
(dp116
g18
I1
sg19
I0
sg20
I676
sg21
I0
sg22
I0
sg23
I498
sg24
I0
sbssg25
S'\xbb\xa3\xf3>\xe6\xab\xf6\x19\xf9\xe4MR\x88\x8f\xbfq'
p117
ssS'_usr_local_lib_python2_7_dist-packages_django_contrib_auth_migrations_0004_alter_user_username_opts'
p118
(dp119
S'index'
p120
(dp121
g86
S'_usr_local_lib_python2_7_dist-packages_django_contrib_auth_migrations_0004_alter_user_username_opts.html'
p122
sg88
S'/usr/local/lib/python2.7/dist-packages/django/contrib/auth/migrations/0004_alter_user_username_opts'
p123
sg90
g13
(g14
g15
NtRp124
(dp125
g18
I1
sg19
I0
sg20
I6
sg21
I0
sg22
I0
sg23
I0
sg24
I0
sbssS'hash'
p126
S'\xe0t\xb9B3\xc6\xd3G\x05\xc3\xcd\xe11\xec\x82n'
p127
ssS'_usr_local_lib_python2_7_dist-packages_django_core_handlers_base'
p128
(dp129
g6
(dp130
g8
S'_usr_local_lib_python2_7_dist-packages_django_core_handlers_base.html'
p131
sg10
S'/usr/local/lib/python2.7/dist-packages/django/core/handlers/base'
p132
sg12
g13
(g14
g15
NtRp133
(dp134
g18
I1
sg19
I0
sg20
I155
sg21
I0
sg22
I0
sg23
I131
sg24
I0
sbssg25
S'&\x91\x9b\xed|;\x80j\xb0\x92\xb6\x90\x83\xd5\x0cc'
p135
ssS'_usr_local_lib_python2_7_dist-packages_django_core_signing'
p136
(dp137
g6
(dp138
g8
S'_usr_local_lib_python2_7_dist-packages_django_core_signing.html'
p139
sg10
S'/usr/local/lib/python2.7/dist-packages/django/core/signing'
p140
sg12
g13
(g14
g15
NtRp141
(dp142
g18
I1
sg19
I0
sg20
I90
sg21
I0
sg22
I0
sg23
I57
sg24
I0
sbssg25
S"\x1c\xfc_\xdcGZ\xa7\x80\x90\x0e\xc6\xe6`T'\x17"
p143
ssS'_usr_local_lib_python2_7_dist-packages_django_utils_lru_cache'
p144
(dp145
g6
(dp146
g86
S'_usr_local_lib_python2_7_dist-packages_django_utils_lru_cache.html'
p147
sg88
S'/usr/local/lib/python2.7/dist-packages/django/utils/lru_cache'
p148
sg90
g13
(g14
g15
NtRp149
(dp150
g18
I1
sg19
I0
sg20
I106
sg21
I0
sg22
I0
sg23
I44
sg24
I0
sbssg25
S'\x00\x1d7^\xba\x11V\xcd\x1a\xf6\x03\x84\x9f>|2'
p151
ssS'_usr_local_lib_python2_7_dist-packages_django_utils_version'
p152
(dp153
g6
(dp154
g8
S'_usr_local_lib_python2_7_dist-packages_django_utils_version.html'
p155
sg10
S'/usr/local/lib/python2.7/dist-packages/django/utils/version'
p156
sg12
g13
(g14
g15
NtRp157
(dp158
g18
I1
sg19
I0
sg20
I42
sg21
I0
sg22
I0
sg23
I17
sg24
I0
sbssg25
S'Y\xe6\xe2\x14QX\xfe\xd6\xd6\x92\xb3Jv|\xaf\xa0'
p159
ssS'_usr_local_lib_python2_7_dist-packages_crispy_forms_utils'
p160
(dp161
g6
(dp162
g8
S'_usr_local_lib_python2_7_dist-packages_crispy_forms_utils.html'
p163
sg10
S'/usr/local/lib/python2.7/dist-packages/crispy_forms/utils'
p164
sg12
g13
(g14
g15
NtRp165
(dp166
g18
I1
sg19
I0
sg20
I83
sg21
I0
sg22
I0
sg23
I65
sg24
I0
sbssg25
S'M\xae\xbbp\xce\xa1\xdf\x80Ia\xba\xa5\xca\xd8\x8d\x97'
p167
ssS'_usr_local_lib_python2_7_dist-packages_django_core_handlers___init__'
p168
(dp169
g6
(dp170
g8
S'_usr_local_lib_python2_7_dist-packages_django_core_handlers___init__.html'
p171
sg10
S'/usr/local/lib/python2.7/dist-packages/django/core/handlers/__init__'
p172
sg12
g13
(g14
g15
NtRp173
(dp174
g18
I1
sg19
I0
sg20
I0
sg21
I0
sg22
I0
sg23
I0
sg24
I0
sbssg25
S'\xb0\xc8pN\xaf>\xa0\xbaz\x144\xe0A9\xb8?'
p175
ssS'_usr_local_lib_python2_7_dist-packages_django_db_backends_base_client'
p176
(dp177
g6
(dp178
g8
S'_usr_local_lib_python2_7_dist-packages_django_db_backends_base_client.html'
p179
sg10
S'/usr/local/lib/python2.7/dist-packages/django/db/backends/base/client'
p180
sg12
g13
(g14
g15
NtRp181
(dp182
g18
I1
sg19
I0
sg20
I6
sg21
I0
sg22
I0
sg23
I1
sg24
I0
sbssg25
S'\xa0\x98\x02\x83\xe4p\x9ckH\xec;\x10\xbfk\x0eM'
p183
ssS'_usr_local_lib_python2_7_dist-packages_django_db_backends_sqlite3_introspection'
p184
(dp185
g6
(dp186
g86
S'_usr_local_lib_python2_7_dist-packages_django_db_backends_sqlite3_introspection.html'
p187
sg88
S'/usr/local/lib/python2.7/dist-packages/django/db/backends/sqlite3/introspection'
p188
sg90
g13
(g14
g15
NtRp189
(dp190
g18
I1
sg19
I0
sg20
I120
sg21
I0
sg22
I0
sg23
I100
sg24
I0
sbssg25
S'?\x87\xa9-c\n\x8bnI]Gjh\x87\x8c\xe7'
p191
ssS'_usr_local_lib_python2_7_dist-packages_django_db_migrations_questioner'
p192
(dp193
g120
(dp194
g86
S'_usr_local_lib_python2_7_dist-packages_django_db_migrations_questioner.html'
p195
sg88
S'/usr/local/lib/python2.7/dist-packages/django/db/migrations/questioner'
p196
sg90
g13
(g14
g15
NtRp197
(dp198
g18
I1
sg19
I0
sg20
I103
sg21
I0
sg22
I0
sg23
I77
sg24
I0
sbssg126
S'1\xd8[z\x12\xce\xce8i\xf0X\t\x87\xaa\xcd\x8d'
p199
ssS'_usr_local_lib_python2_7_dist-packages_django_utils_module_loading'
p200
(dp201
g6
(dp202
g8
S'_usr_local_lib_python2_7_dist-packages_django_utils_module_loading.html'
p203
sg10
S'/usr/local/lib/python2.7/dist-packages/django/utils/module_loading'
p204
sg12
g13
(g14
g15
NtRp205
(dp206
g18
I1
sg19
I0
sg20
I101
sg21
I0
sg22
I0
sg23
I36
sg24
I0
sbssg25
S'>~\x06|\x03~\xd2A\x0f\xc0{*\x1c\x117\x02'
p207
ssS'_usr_local_lib_python2_7_dist-packages_django_contrib_sessions_migrations___init__'
p208
(dp209
g120
(dp210
g86
S'_usr_local_lib_python2_7_dist-packages_django_contrib_sessions_migrations___init__.html'
p211
sg88
S'/usr/local/lib/python2.7/dist-packages/django/contrib/sessions/migrations/__init__'
p212
sg90
g13
(g14
g15
NtRp213
(dp214
g18
I1
sg19
I0
sg20
I0
sg21
I0
sg22
I0
sg23
I0
sg24
I0
sbssg126
S'\xb0\xc8pN\xaf>\xa0\xbaz\x144\xe0A9\xb8?'
p215
ssS'_usr_local_lib_python2_7_dist-packages_django_contrib_contenttypes___init__'
p216
(dp217
g6
(dp218
g8
S'_usr_local_lib_python2_7_dist-packages_django_contrib_contenttypes___init__.html'
p219
sg10
S'/usr/local/lib/python2.7/dist-packages/django/contrib/contenttypes/__init__'
p220
sg12
g13
(g14
g15
NtRp221
(dp222
g18
I1
sg19
I0
sg20
I1
sg21
I0
sg22
I0
sg23
I0
sg24
I0
sbssg25
S'<\x90\xfeqB1~\xf9\x95\xabK \x85\xa712'
p223
ssS'_usr_local_lib_python2_7_dist-packages_phonenumbers_data_alt_format_66'
p224
(dp225
g6
(dp226
g8
S'_usr_local_lib_python2_7_dist-packages_phonenumbers_data_alt_format_66.html'
p227
sg10
S'/usr/local/lib/python2.7/dist-packages/phonenumbers/data/alt_format_66'
p228
sg12
g13
(g14
g15
NtRp229
(dp230
g18
I1
sg19
I0
sg20
I2
sg21
I0
sg22
I0
sg23
I0
sg24
I0
sbssg25
S'\rN\xf7Rh\xd3\xea:h\xb1\x07\xa7\x19\xac=\x9b'
p231
ssS'_usr_local_lib_python2_7_dist-packages_django_template_loaders_locmem'
p232
(dp233
g6
(dp234
g8
S'_usr_local_lib_python2_7_dist-packages_django_template_loaders_locmem.html'
p235
sg10
S'/usr/local/lib/python2.7/dist-packages/django/template/loaders/locmem'
p236
sg12
g13
(g14
g15
NtRp237
(dp238
g18
I1
sg19
I0
sg20
I12
sg21
I0
sg22
I0
sg23
I6
sg24
I0
sbssg25
S'\xc4\xb1\x08*\x9ftj\x16\xa6 \x97X\xe4\xb7!d'
p239
ssS'_usr_local_lib_python2_7_dist-packages_phonenumbers_data_alt_format_63'
p240
(dp241
g6
(dp242
g8
S'_usr_local_lib_python2_7_dist-packages_phonenumbers_data_alt_format_63.html'
p243
sg10
S'/usr/local/lib/python2.7/dist-packages/phonenumbers/data/alt_format_63'
p244
sg12
g13
(g14
g15
NtRp245
(dp246
g18
I1
sg19
I0
sg20
I2
sg21
I0
sg22
I0
sg23
I0
sg24
I0
sbssg25
S'!\xad:hF\xbf\xef\xe0\x82\xfbcDj\x08\xd0:'
p247
ssS'_usr_local_lib_python2_7_dist-packages_django_core_checks_messages'
p248
(dp249
g6
(dp250
g8
S'_usr_local_lib_python2_7_dist-packages_django_core_checks_messages.html'
p251
sg10
S'/usr/local/lib/python2.7/dist-packages/django/core/checks/messages'
p252
sg12
g13
(g14
g15
NtRp253
(dp254
g18
I1
sg19
I0
sg20
I54
sg21
I0
sg22
I0
sg23
I21
sg24
I0
sbssg25
S'\xe8P\xd2\x00_I\xecM\xb7\xd9\xb3\xd7b\x9e\x9e.'
p255
ssS'_usr_local_lib_python2_7_dist-packages_phonenumbers_data_alt_format_61'
p256
(dp257
g6
(dp258
g8
S'_usr_local_lib_python2_7_dist-packages_phonenumbers_data_alt_format_61.html'
p259
sg10
S'/usr/local/lib/python2.7/dist-packages/phonenumbers/data/alt_format_61'
p260
sg12
g13
(g14
g15
NtRp261
(dp262
g18
I1
sg19
I0
sg20
I2
sg21
I0
sg22
I0
sg23
I0
sg24
I0
sbssg25
S'\xd3\xb0\xb7!\x91\xd9\x99?=\xafFz!\x8b\x08h'
p263
ssS'_usr_local_lib_python2_7_dist-packages_django_db_migrations_recorder'
p264
(dp265
g120
(dp266
g86
S'_usr_local_lib_python2_7_dist-packages_django_db_migrations_recorder.html'
p267
sg88
S'/usr/local/lib/python2.7/dist-packages/django/db/migrations/recorder'
p268
sg90
g13
(g14
g15
NtRp269
(dp270
g18
I1
sg19
I0
sg20
I37
sg21
I0
sg22
I0
sg23
I4
sg24
I0
sbssg126
S'\x82\xce\xe8:\xf44^\xc0\xd1o\x1b\xfeGi\xdc\x92'
p271
ssS'_usr_local_lib_python2_7_dist-packages_django_utils_numberformat'
p272
(dp273
g6
(dp274
g8
S'_usr_local_lib_python2_7_dist-packages_django_utils_numberformat.html'
p275
sg10
S'/usr/local/lib/python2.7/dist-packages/django/utils/numberformat'
p276
sg12
g13
(g14
g15
NtRp277
(dp278
g18
I1
sg19
I0
sg20
I34
sg21
I0
sg22
I0
sg23
I29
sg24
I0
sbssg25
S'\xb7G\xc1\xd5\x94\xb0r\t\xf8E3\xcb\x9b;\xec\xb9'
p279
ssS'_usr_local_lib_python2_7_dist-packages_django_contrib_auth___init__'
p280
(dp281
g6
(dp282
g86
S'_usr_local_lib_python2_7_dist-packages_django_contrib_auth___init__.html'
p283
sg88
S'/usr/local/lib/python2.7/dist-packages/django/contrib/auth/__init__'
p284
sg90
g13
(g14
g15
NtRp285
(dp286
g18
I1
sg19
I0
sg20
I110
sg21
I0
sg22
I0
sg23
I82
sg24
I0
sbssg25
S'<\t\xc3\x1f\x88_Yf\xc8\x8c\xafE\xed\xba,\xfe'
p287
ssS'_usr_local_lib_python2_7_dist-packages_django_contrib_sessions_migrations_0001_initial'
p288
(dp289
g120
(dp290
g86
S'_usr_local_lib_python2_7_dist-packages_django_contrib_sessions_migrations_0001_initial.html'
p291
sg88
S'/usr/local/lib/python2.7/dist-packages/django/contrib/sessions/migrations/0001_initial'
p292
sg90
g13
(g14
g15
NtRp293
(dp294
g18
I1
sg19
I0
sg20
I6
sg21
I0
sg22
I0
sg23
I0
sg24
I0
sbssg126
S'\xa3"\x9c\x7f\xa3\xf10i%`\xb2\xae\xafT\xae\x96'
p295
ssS'_usr_local_lib_python2_7_dist-packages_django_utils_tree'
p296
(dp297
g6
(dp298
g86
S'_usr_local_lib_python2_7_dist-packages_django_utils_tree.html'
p299
sg88
S'/usr/local/lib/python2.7/dist-packages/django/utils/tree'
p300
sg90
g13
(g14
g15
NtRp301
(dp302
g18
I1
sg19
I0
sg20
I52
sg21
I0
sg22
I0
sg23
I21
sg24
I0
sbssg25
S'0\xf8\x1e\x9e\x8d\x86wP1$\xd9\x9cR\xa2\xcd\xe7'
p303
ssS'_usr_local_lib_python2_7_dist-packages_django_template_loaders___init__'
p304
(dp305
g6
(dp306
g8
S'_usr_local_lib_python2_7_dist-packages_django_template_loaders___init__.html'
p307
sg10
S'/usr/local/lib/python2.7/dist-packages/django/template/loaders/__init__'
p308
sg12
g13
(g14
g15
NtRp309
(dp310
g18
I1
sg19
I0
sg20
I0
sg21
I0
sg22
I0
sg23
I0
sg24
I0
sbssg25
S'\xb0\xc8pN\xaf>\xa0\xbaz\x144\xe0A9\xb8?'
p311
ssS'_usr_local_lib_python2_7_dist-packages_django_db_models_fields_files'
p312
(dp313
g6
(dp314
g8
S'_usr_local_lib_python2_7_dist-packages_django_db_models_fields_files.html'
p315
sg10
S'/usr/local/lib/python2.7/dist-packages/django/db/models/fields/files'
p316
sg12
g13
(g14
g15
NtRp317
(dp318
g18
I1
sg19
I0
sg20
I253
sg21
I0
sg22
I0
sg23
I174
sg24
I0
sbssg25
S'h\xdc\xcb]\xfaS\xb7\xf9\xcdB\x1a\xf6\xdaF\xe9\x0e'
p319
ssS'_usr_local_lib_python2_7_dist-packages_django_core_checks_security___init__'
p320
(dp321
g6
(dp322
g8
S'_usr_local_lib_python2_7_dist-packages_django_core_checks_security___init__.html'
p323
sg10
S'/usr/local/lib/python2.7/dist-packages/django/core/checks/security/__init__'
p324
sg12
g13
(g14
g15
NtRp325
(dp326
g18
I1
sg19
I0
sg20
I0
sg21
I0
sg22
I0
sg23
I0
sg24
I0
sbssg25
S'\xb0\xc8pN\xaf>\xa0\xbaz\x144\xe0A9\xb8?'
p327
ssS'_usr_local_lib_python2_7_dist-packages_django_test_runner'
p328
(dp329
g6
(dp330
g86
S'_usr_local_lib_python2_7_dist-packages_django_test_runner.html'
p331
sg88
S'/usr/local/lib/python2.7/dist-packages/django/test/runner'
p332
sg90
g13
(g14
g15
NtRp333
(dp334
g18
I1
sg19
I0
sg20
I215
sg21
I0
sg22
I0
sg23
I50
sg24
I0
sbssg25
S'\xf1\xa4\x94\xf8n\x90\xa5\x18\xeb\x1d`N\xdd\xe3\\\xa6'
p335
ssS'_usr_local_lib_python2_7_dist-packages_django_db_migrations_executor'
p336
(dp337
g120
(dp338
g86
S'_usr_local_lib_python2_7_dist-packages_django_db_migrations_executor.html'
p339
sg88
S'/usr/local/lib/python2.7/dist-packages/django/db/migrations/executor'
p340
sg90
g13
(g14
g15
NtRp341
(dp342
g18
I1
sg19
I0
sg20
I129
sg21
I0
sg22
I0
sg23
I60
sg24
I0
sbssg126
S'\x1f\x01\xa5\xe1\xd2a$D \xa9W^\xb0\xbbT@'
p343
ssS'_usr_local_lib_python2_7_dist-packages_django_utils_crypto'
p344
(dp345
g6
(dp346
g8
S'_usr_local_lib_python2_7_dist-packages_django_utils_crypto.html'
p347
sg10
S'/usr/local/lib/python2.7/dist-packages/django/utils/crypto'
p348
sg12
g13
(g14
g15
NtRp349
(dp350
g18
I1
sg19
I0
sg20
I87
sg21
I0
sg22
I0
sg23
I65
sg24
I0
sbssg25
S'f\xed\xc8G\xa8\xf2\x1e\x80\x0bs\x89k\x8f\xf18\xbb'
p351
ssS'_usr_local_lib_python2_7_dist-packages_django_contrib_admin_templatetags_admin_static'
p352
(dp353
g6
(dp354
g8
S'_usr_local_lib_python2_7_dist-packages_django_contrib_admin_templatetags_admin_static.html'
p355
sg10
S'/usr/local/lib/python2.7/dist-packages/django/contrib/admin/templatetags/admin_static'
p356
sg12
g13
(g14
g15
NtRp357
(dp358
g18
I1
sg19
I0
sg20
I10
sg21
I0
sg22
I0
sg23
I5
sg24
I0
sbssg25
S'\xa9\xc7\x10\x8f!,\xf1\xd4\x9a\x9fk\xc6$\xe8u%'
p359
ssS'_usr_local_lib_python2_7_dist-packages_phonenumbers___init__'
p360
(dp361
g6
(dp362
g8
S'_usr_local_lib_python2_7_dist-packages_phonenumbers___init__.html'
p363
sg10
S'/usr/local/lib/python2.7/dist-packages/phonenumbers/__init__'
p364
sg12
g13
(g14
g15
NtRp365
(dp366
g18
I1
sg19
I0
sg20
I8
sg21
I3
sg22
I0
sg23
I0
sg24
I0
sbssg25
S'\n\x93\x9c\xb6\xe9x\x07\x86\xb8\xe1\xcc\xfbE\xa1I\xff'
p367
ssS'_usr_local_lib_python2_7_dist-packages_django_conf_urls___init__'
p368
(dp369
g6
(dp370
g8
S'_usr_local_lib_python2_7_dist-packages_django_conf_urls___init__.html'
p371
sg10
S'/usr/local/lib/python2.7/dist-packages/django/conf/urls/__init__'
p372
sg12
g13
(g14
g15
NtRp373
(dp374
g18
I1
sg19
I0
sg20
I48
sg21
I0
sg22
I0
sg23
I34
sg24
I0
sbssg25
S'ZA\xcc\x92w\x11\xd0\xc3\xad\x98?\x18\xc4\xb6\xee\x9d'
p375
ssS'_usr_local_lib_python2_7_dist-packages_django_core_checks___init__'
p376
(dp377
g6
(dp378
g8
S'_usr_local_lib_python2_7_dist-packages_django_core_checks___init__.html'
p379
sg10
S'/usr/local/lib/python2.7/dist-packages/django/core/checks/__init__'
p380
sg12
g13
(g14
g15
NtRp381
(dp382
g18
I1
sg19
I0
sg20
I10
sg21
I0
sg22
I0
sg23
I0
sg24
I0
sbssg25
S'\x1adu\xa8\x96\xf1L\x1b8a\x08\x19\xbc\xff\x17\xba'
p383
ssS'_usr_local_lib_python2_7_dist-packages_phonenumbers_data_alt_format_995'
p384
(dp385
g6
(dp386
g8
S'_usr_local_lib_python2_7_dist-packages_phonenumbers_data_alt_format_995.html'
p387
sg10
S'/usr/local/lib/python2.7/dist-packages/phonenumbers/data/alt_format_995'
p388
sg12
g13
(g14
g15
NtRp389
(dp390
g18
I1
sg19
I0
sg20
I2
sg21
I0
sg22
I0
sg23
I0
sg24
I0
sbssg25
S'\xcf\x15:\xd3\xf8}\xb5\xdb?\x80\x08E4\x16e]'
p391
ssS'manage'
p392
(dp393
g6
(dp394
g8
S'manage.html'
p395
sg10
g392
sg12
g13
(g14
g15
NtRp396
(dp397
g18
I1
sg19
I0
sg20
I6
sg21
I0
sg22
I0
sg23
I0
sg24
I0
sbssg25
S'*\xf9\x90\x9f\x12\xff=I_\x05\x86\xb0B\xfe41'
p398
ssS'_usr_local_lib_python2_7_dist-packages_django_test___init__'
p399
(dp400
g6
(dp401
g8
S'_usr_local_lib_python2_7_dist-packages_django_test___init__.html'
p402
sg10
S'/usr/local/lib/python2.7/dist-packages/django/test/__init__'
p403
sg12
g13
(g14
g15
NtRp404
(dp405
g18
I1
sg19
I0
sg20
I11
sg21
I0
sg22
I0
sg23
I0
sg24
I0
sbssg25
S'\x910\x87L\xd4!1\x1f\xd2;\xe6\x83\xc2B\xc4\xba'
p406
ssS'_usr_local_lib_python2_7_dist-packages_django_contrib_auth_migrations_0002_alter_permission_name_max_length'
p407
(dp408
g120
(dp409
g86
S'_usr_local_lib_python2_7_dist-packages_django_contrib_auth_migrations_0002_alter_permission_name_max_length.html'
p410
sg88
S'/usr/local/lib/python2.7/dist-packages/django/contrib/auth/migrations/0002_alter_permission_name_max_length'
p411
sg90
g13
(g14
g15
NtRp412
(dp413
g18
I1
sg19
I0
sg20
I5
sg21
I0
sg22
I0
sg23
I0
sg24
I0
sbssg126
S'1w.x\xdcK\xcb\x07\xb6\x8a\xf4\x83}\nQY'
p414
ssS'_usr_local_lib_python2_7_dist-packages_django_db_backends_base_base'
p415
(dp416
g6
(dp417
g86
S'_usr_local_lib_python2_7_dist-packages_django_db_backends_base_base.html'
p418
sg88
S'/usr/local/lib/python2.7/dist-packages/django/db/backends/base/base'
p419
sg90
g13
(g14
g15
NtRp420
(dp421
g18
I1
sg19
I0
sg20
I225
sg21
I0
sg22
I0
sg23
I67
sg24
I0
sbssg25
S'\x97\xe7\xca\xb2]\xe3\xa2\xa4\x01P\xfb\x8b\xfc\x98N\xa1'
p422
ssS'_usr_local_lib_python2_7_dist-packages_django_template_backends_base'
p423
(dp424
g6
(dp425
g8
S'_usr_local_lib_python2_7_dist-packages_django_template_backends_base.html'
p426
sg10
S'/usr/local/lib/python2.7/dist-packages/django/template/backends/base'
p427
sg12
g13
(g14
g15
NtRp428
(dp429
g18
I1
sg19
I0
sg20
I30
sg21
I0
sg22
I0
sg23
I18
sg24
I0
sbssg25
S'\x0fSd*L\xd4\x90*\xdc\xac\xf7\xa1S\xefgi'
p430
ssS'_usr_local_lib_python2_7_dist-packages_django_db_backends_base_operations'
p431
(dp432
g6
(dp433
g86
S'_usr_local_lib_python2_7_dist-packages_django_db_backends_base_operations.html'
p434
sg88
S'/usr/local/lib/python2.7/dist-packages/django/db/backends/base/operations'
p435
sg90
g13
(g14
g15
NtRp436
(dp437
g18
I1
sg19
I0
sg20
I179
sg21
I0
sg22
I0
sg23
I88
sg24
I0
sbssg25
S'j.\x12!id\x06\xc1\x88\xce\xbdJ\xfe\xea\xe6\xe5'
p438
ssS'_usr_local_lib_python2_7_dist-packages_django_contrib_messages_storage___init__'
p439
(dp440
g6
(dp441
g8
S'_usr_local_lib_python2_7_dist-packages_django_contrib_messages_storage___init__.html'
p442
sg10
S'/usr/local/lib/python2.7/dist-packages/django/contrib/messages/storage/__init__'
p443
sg12
g13
(g14
g15
NtRp444
(dp445
g18
I1
sg19
I0
sg20
I4
sg21
I0
sg22
I0
sg23
I1
sg24
I0
sbssg25
S'\xd1\xd5Ds\xddZX8\n?\xd6N"\x0e\xc9\x9c'
p446
ssS'_usr_local_lib_python2_7_dist-packages_django_dispatch_dispatcher'
p447
(dp448
g6
(dp449
g86
S'_usr_local_lib_python2_7_dist-packages_django_dispatch_dispatcher.html'
p450
sg88
S'/usr/local/lib/python2.7/dist-packages/django/dispatch/dispatcher'
p451
sg90
g13
(g14
g15
NtRp452
(dp453
g18
I1
sg19
I0
sg20
I140
sg21
I0
sg22
I0
sg23
I53
sg24
I0
sbssg25
S'\xc2\xf0\xe7\x1b\x80K\xd6\x0b\xfa\xf5s\xbb\xc3\xbd\xb9\xd6'
p454
ssS'_usr_local_lib_python2_7_dist-packages_django_utils_timesince'
p455
(dp456
g6
(dp457
g8
S'_usr_local_lib_python2_7_dist-packages_django_utils_timesince.html'
p458
sg10
S'/usr/local/lib/python2.7/dist-packages/django/utils/timesince'
p459
sg12
g13
(g14
g15
NtRp460
(dp461
g18
I1
sg19
I0
sg20
I30
sg21
I0
sg22
I0
sg23
I22
sg24
I0
sbssg25
S'\xda)\xf1Sq?\xe7\xf6\xcbD\xc2c\xff\xe9\\\xd7'
p462
ssS'_usr_local_lib_python2_7_dist-packages_django_db_migrations_operations___init__'
p463
(dp464
g120
(dp465
g86
S'_usr_local_lib_python2_7_dist-packages_django_db_migrations_operations___init__.html'
p466
sg88
S'/usr/local/lib/python2.7/dist-packages/django/db/migrations/operations/__init__'
p467
sg90
g13
(g14
g15
NtRp468
(dp469
g18
I1
sg19
I0
sg20
I4
sg21
I0
sg22
I0
sg23
I0
sg24
I0
sbssg126
S'\t\x9f\xa5\x1e\x04r\xff\xfc\x94\xa9W\x90\x86\x9d\x88['
p470
ssS'_usr_local_lib_python2_7_dist-packages_django_contrib_contenttypes_admin'
p471
(dp472
g6
(dp473
g8
S'_usr_local_lib_python2_7_dist-packages_django_contrib_contenttypes_admin.html'
p474
sg10
S'/usr/local/lib/python2.7/dist-packages/django/contrib/contenttypes/admin'
p475
sg12
g13
(g14
g15
NtRp476
(dp477
g18
I1
sg19
I0
sg20
I55
sg21
I0
sg22
I0
sg23
I32
sg24
I0
sbssg25
S'\x8f}9\x1e\xa9\xc5\xf0\xdd\xa31@j7E\x967'
p478
ssS'_usr_local_lib_python2_7_dist-packages_django_contrib_auth_migrations_0005_alter_user_last_login_null'
p479
(dp480
g120
(dp481
g86
S'_usr_local_lib_python2_7_dist-packages_django_contrib_auth_migrations_0005_alter_user_last_login_null.html'
p482
sg88
S'/usr/local/lib/python2.7/dist-packages/django/contrib/auth/migrations/0005_alter_user_last_login_null'
p483
sg90
g13
(g14
g15
NtRp484
(dp485
g18
I1
sg19
I0
sg20
I5
sg21
I0
sg22
I0
sg23
I0
sg24
I0
sbssg126
S'H\xfc\xdbs)73\x9c\xf3\xb3\xd9\x0f\xfd=\xa5_'
p486
ssS'_usr_local_lib_python2_7_dist-packages_django_dispatch___init__'
p487
(dp488
g6
(dp489
g8
S'_usr_local_lib_python2_7_dist-packages_django_dispatch___init__.html'
p490
sg10
S'/usr/local/lib/python2.7/dist-packages/django/dispatch/__init__'
p491
sg12
g13
(g14
g15
NtRp492
(dp493
g18
I1
sg19
I0
sg20
I1
sg21
I0
sg22
I0
sg23
I0
sg24
I0
sbssg25
S'\xa7>\xfc]\xa2\xc8\x97\x0b\xfb2\xef\xeep\xb7\xed\x99'
p494
ssS'_usr_local_lib_python2_7_dist-packages_django_contrib_contenttypes_apps'
p495
(dp496
g6
(dp497
g8
S'_usr_local_lib_python2_7_dist-packages_django_contrib_contenttypes_apps.html'
p498
sg10
S'/usr/local/lib/python2.7/dist-packages/django/contrib/contenttypes/apps'
p499
sg12
g13
(g14
g15
NtRp500
(dp501
g18
I1
sg19
I0
sg20
I12
sg21
I0
sg22
I0
sg23
I0
sg24
I0
sbssg25
S'?\xd6\xbd\xe4\xf3\x1d\x86\x1e\xd5i\xde\xe2\xd6+\xfe\xf8'
p502
ssS'_usr_local_lib_python2_7_dist-packages_django_core_management_sql'
p503
(dp504
g6
(dp505
g86
S'_usr_local_lib_python2_7_dist-packages_django_core_management_sql.html'
p506
sg88
S'/usr/local/lib/python2.7/dist-packages/django/core/management/sql'
p507
sg90
g13
(g14
g15
NtRp508
(dp509
g18
I1
sg19
I0
sg20
I155
sg21
I0
sg22
I0
sg23
I97
sg24
I0
sbssg25
S'd\xf2.\x95\rj\x9e6\xb3vz\xf5\xfdv\x9e\x93'
p510
ssS'_usr_local_lib_python2_7_dist-packages_django_views_decorators_cache'
p511
(dp512
g6
(dp513
g8
S'_usr_local_lib_python2_7_dist-packages_django_views_decorators_cache.html'
p514
sg10
S'/usr/local/lib/python2.7/dist-packages/django/views/decorators/cache'
p515
sg12
g13
(g14
g15
NtRp516
(dp517
g18
I1
sg19
I0
sg20
I27
sg21
I0
sg22
I0
sg23
I18
sg24
I0
sbssg25
S'\xce\n\x00+\x1bi\xda\x12h\xb4\xf2\x8a\x99\x9d}\xf1'
p518
ssS'_usr_local_lib_python2_7_dist-packages_django_template_utils'
p519
(dp520
g6
(dp521
g8
S'_usr_local_lib_python2_7_dist-packages_django_template_utils.html'
p522
sg10
S'/usr/local/lib/python2.7/dist-packages/django/template/utils'
p523
sg12
g13
(g14
g15
NtRp524
(dp525
g18
I1
sg19
I0
sg20
I70
sg21
I0
sg22
I0
sg23
I48
sg24
I0
sbssg25
S"\xb1I:\x0c@\x98\xcc!\nI\x87\x83y\xf7'\x10"
p526
ssS'_usr_local_lib_python2_7_dist-packages_django_forms___init__'
p527
(dp528
g6
(dp529
g8
S'_usr_local_lib_python2_7_dist-packages_django_forms___init__.html'
p530
sg10
S'/usr/local/lib/python2.7/dist-packages/django/forms/__init__'
p531
sg12
g13
(g14
g15
NtRp532
(dp533
g18
I1
sg19
I0
sg20
I6
sg21
I0
sg22
I0
sg23
I0
sg24
I0
sbssg25
S'\xcf\x89\xf0\x10F\x0f#(jw\xcd\xab\x9bs\x14\x84'
p534
ssS'_usr_local_lib_python2_7_dist-packages_crispy_forms_layout'
p535
(dp536
g6
(dp537
g8
S'_usr_local_lib_python2_7_dist-packages_crispy_forms_layout.html'
p538
sg10
S'/usr/local/lib/python2.7/dist-packages/crispy_forms/layout'
p539
sg12
g13
(g14
g15
NtRp540
(dp541
g18
I1
sg19
I0
sg20
I176
sg21
I0
sg22
I0
sg23
I111
sg24
I0
sbssg25
S'<\xccU\x85\xa507\x88}\xb2\xee}\xfag\xcf\x90'
p542
ssS'_usr_local_lib_python2_7_dist-packages_phonenumbers_data_alt_format_255'
p543
(dp544
g6
(dp545
g8
S'_usr_local_lib_python2_7_dist-packages_phonenumbers_data_alt_format_255.html'
p546
sg10
S'/usr/local/lib/python2.7/dist-packages/phonenumbers/data/alt_format_255'
p547
sg12
g13
(g14
g15
NtRp548
(dp549
g18
I1
sg19
I0
sg20
I2
sg21
I0
sg22
I0
sg23
I0
sg24
I0
sbssg25
S'\x1b\x0b\xea\xbe\x84\xae\x13\x8c\xb6\xa8\xb6\xf3\xc9X\xd4\x88'
p550
ssS'_usr_local_lib_python2_7_dist-packages_django_contrib_contenttypes_forms'
p551
(dp552
g6
(dp553
g8
S'_usr_local_lib_python2_7_dist-packages_django_contrib_contenttypes_forms.html'
p554
sg10
S'/usr/local/lib/python2.7/dist-packages/django/contrib/contenttypes/forms'
p555
sg12
g13
(g14
g15
NtRp556
(dp557
g18
I1
sg19
I0
sg20
I38
sg21
I0
sg22
I0
sg23
I28
sg24
I0
sbssg25
S'\x16\x11\x0741\xa3\x85\xf5LL\xe8\x10\xaf\xb9\xce\xa0'
p558
ssS'_usr_local_lib_python2_7_dist-packages_django_contrib_auth_tokens'
p559
(dp560
g6
(dp561
g8
S'_usr_local_lib_python2_7_dist-packages_django_contrib_auth_tokens.html'
p562
sg10
S'/usr/local/lib/python2.7/dist-packages/django/contrib/auth/tokens'
p563
sg12
g13
(g14
g15
NtRp564
(dp565
g18
I1
sg19
I0
sg20
I34
sg21
I0
sg22
I0
sg23
I22
sg24
I0
sbssg25
S'm\xedR\xb6\xbb\x9c\xe2\x05e\x1b\xa2a:@jf'
p566
ssS'_usr_local_lib_python2_7_dist-packages_django_contrib_messages_api'
p567
(dp568
g6
(dp569
g8
S'_usr_local_lib_python2_7_dist-packages_django_contrib_messages_api.html'
p570
sg10
S'/usr/local/lib/python2.7/dist-packages/django/contrib/messages/api'
p571
sg12
g13
(g14
g15
NtRp572
(dp573
g18
I1
sg19
I0
sg20
I37
sg21
I0
sg22
I0
sg23
I22
sg24
I0
sbssg25
S'*\x90\x9c\xde\x9f\xd9c\x00\xdaNX \xde\x17\x92a'
p574
ssS'_usr_local_lib_python2_7_dist-packages_django_db_models_fields___init__'
p575
(dp576
g6
(dp577
g86
S'_usr_local_lib_python2_7_dist-packages_django_db_models_fields___init__.html'
p578
sg88
S'/usr/local/lib/python2.7/dist-packages/django/db/models/fields/__init__'
p579
sg90
g13
(g14
g15
NtRp580
(dp581
g18
I1
sg19
I0
sg20
I1320
sg21
I0
sg22
I0
sg23
I720
sg24
I0
sbssg25
S'\xecp\x850\xfa\x92,\r\xda>\xb3w\xd7\xa8\xfe\x02'
p582
ssS'_usr_local_lib_python2_7_dist-packages_django_template_loader_tags'
p583
(dp584
g6
(dp585
g8
S'_usr_local_lib_python2_7_dist-packages_django_template_loader_tags.html'
p586
sg10
S'/usr/local/lib/python2.7/dist-packages/django/template/loader_tags'
p587
sg12
g13
(g14
g15
NtRp588
(dp589
g18
I1
sg19
I0
sg20
I155
sg21
I0
sg22
I0
sg23
I124
sg24
I0
sbssg25
S"\xb7]\x02\xc3O\x80'\xadP\x97\x10PR\xf8X\xa3"
p590
ssS'_usr_local_lib_python2_7_dist-packages_phonenumbers_data_alt_format_27'
p591
(dp592
g6
(dp593
g8
S'_usr_local_lib_python2_7_dist-packages_phonenumbers_data_alt_format_27.html'
p594
sg10
S'/usr/local/lib/python2.7/dist-packages/phonenumbers/data/alt_format_27'
p595
sg12
g13
(g14
g15
NtRp596
(dp597
g18
I1
sg19
I0
sg20
I2
sg21
I0
sg22
I0
sg23
I0
sg24
I0
sbssg25
S'\xccL\xe0\xae\xda,\x08\x1ac\xb2\xecT\x18\xfb\xb2c'
p598
ssS'_usr_local_lib_python2_7_dist-packages_django_db_models_query_utils'
p599
(dp600
g6
(dp601
g86
S'_usr_local_lib_python2_7_dist-packages_django_db_models_query_utils.html'
p602
sg88
S'/usr/local/lib/python2.7/dist-packages/django/db/models/query_utils'
p603
sg90
g13
(g14
g15
NtRp604
(dp605
g18
I1
sg19
I0
sg20
I142
sg21
I0
sg22
I0
sg23
I105
sg24
I0
sbssg25
S'\x00\xb0^\x96\xf2\x19(\xf3\xf3\xd1\xb0\x85\xc5R\xb1h'
p606
ssS'_usr_local_lib_python2_7_dist-packages_django_contrib_auth_signals'
p607
(dp608
g6
(dp609
g8
S'_usr_local_lib_python2_7_dist-packages_django_contrib_auth_signals.html'
p610
sg10
S'/usr/local/lib/python2.7/dist-packages/django/contrib/auth/signals'
p611
sg12
g13
(g14
g15
NtRp612
(dp613
g18
I1
sg19
I0
sg20
I4
sg21
I0
sg22
I0
sg23
I0
sg24
I0
sbssg25
S'juq\x85\xf8\xf6\x92\xd4\xc6;\xc1\x16\xc2\xaa\xe6\xec'
p614
ssS'_usr_local_lib_python2_7_dist-packages_django_db_models_base'
p615
(dp616
g6
(dp617
g86
S'_usr_local_lib_python2_7_dist-packages_django_db_models_base.html'
p618
sg88
S'/usr/local/lib/python2.7/dist-packages/django/db/models/base'
p619
sg90
g13
(g14
g15
NtRp620
(dp621
g18
I1
sg19
I0
sg20
I828
sg21
I0
sg22
I0
sg23
I552
sg24
I0
sbssg25
S'\xcc7\xc6\x9e\xe7\xd73\xa0\x0e\xef\x08-O\xaa\xf8<'
p622
ssS'_usr_local_lib_python2_7_dist-packages_django_core_management_commands_test'
p623
(dp624
g6
(dp625
g86
S'_usr_local_lib_python2_7_dist-packages_django_core_management_commands_test.html'
p626
sg88
S'/usr/local/lib/python2.7/dist-packages/django/core/management/commands/test'
p627
sg90
g13
(g14
g15
NtRp628
(dp629
g18
I1
sg19
I0
sg20
I49
sg21
I0
sg22
I0
sg23
I6
sg24
I0
sbssg25
S'\x97\x12+\xb0p\xfeM\xde\xe9\xf3d\x14\xb6pV:'
p630
ssS'_usr_local_lib_python2_7_dist-packages_django_db_models_options'
p631
(dp632
g6
(dp633
g86
S'_usr_local_lib_python2_7_dist-packages_django_db_models_options.html'
p634
sg88
S'/usr/local/lib/python2.7/dist-packages/django/db/models/options'
p635
sg90
g13
(g14
g15
NtRp636
(dp637
g18
I1
sg19
I0
sg20
I387
sg21
I0
sg22
I0
sg23
I107
sg24
I0
sbssg25
S'\x05-\xc3\x809G\xe4\xf9\x86"\x9e\xec\xd5\xe3\xcc\xa5'
p638
ssS'_usr_local_lib_python2_7_dist-packages_django_utils_deconstruct'
p639
(dp640
g6
(dp641
g8
S'_usr_local_lib_python2_7_dist-packages_django_utils_deconstruct.html'
p642
sg10
S'/usr/local/lib/python2.7/dist-packages/django/utils/deconstruct'
p643
sg12
g13
(g14
g15
NtRp644
(dp645
g18
I1
sg19
I0
sg20
I25
sg21
I0
sg22
I0
sg23
I9
sg24
I0
sbssg25
S'\xd1;\xff\x98{\xfe\xb4\x92\xd2\xbe0W\xaei\xa6o'
p646
ssS'_usr_local_lib_python2_7_dist-packages_django_core_urlresolvers'
p647
(dp648
g6
(dp649
g8
S'_usr_local_lib_python2_7_dist-packages_django_core_urlresolvers.html'
p650
sg10
S'/usr/local/lib/python2.7/dist-packages/django/core/urlresolvers'
p651
sg12
g13
(g14
g15
NtRp652
(dp653
g18
I1
sg19
I0
sg20
I379
sg21
I0
sg22
I0
sg23
I311
sg24
I0
sbssg25
S'H\x8e\xe2\xd3\x1b\xa4\xa0\xe8\xff\xb0\xb8=\xe3\xeb\xa6\x0c'
p654
ssS'_usr_local_lib_python2_7_dist-packages_django_core___init__'
p655
(dp656
g6
(dp657
g8
S'_usr_local_lib_python2_7_dist-packages_django_core___init__.html'
p658
sg10
S'/usr/local/lib/python2.7/dist-packages/django/core/__init__'
p659
sg12
g13
(g14
g15
NtRp660
(dp661
g18
I1
sg19
I0
sg20
I0
sg21
I0
sg22
I0
sg23
I0
sg24
I0
sbssg25
S'\xb0\xc8pN\xaf>\xa0\xbaz\x144\xe0A9\xb8?'
p662
ssS'_usr_local_lib_python2_7_dist-packages_django_middleware_csrf'
p663
(dp664
g6
(dp665
g8
S'_usr_local_lib_python2_7_dist-packages_django_middleware_csrf.html'
p666
sg10
S'/usr/local/lib/python2.7/dist-packages/django/middleware/csrf'
p667
sg12
g13
(g14
g15
NtRp668
(dp669
g18
I1
sg19
I0
sg20
I84
sg21
I0
sg22
I0
sg23
I59
sg24
I0
sbssg25
S'V,Y\xc0ur\xa3\xe6[\x8e\x1f\x0c\x1f\x96\xf6\xbe'
p670
ssS'_usr_local_lib_python2_7_dist-packages_django_db_backends_sqlite3_operations'
p671
(dp672
g6
(dp673
g86
S'_usr_local_lib_python2_7_dist-packages_django_db_backends_sqlite3_operations.html'
p674
sg88
S'/usr/local/lib/python2.7/dist-packages/django/db/backends/sqlite3/operations'
p675
sg90
g13
(g14
g15
NtRp676
(dp677
g18
I1
sg19
I0
sg20
I126
sg21
I0
sg22
I0
sg23
I56
sg24
I0
sbssg25
S'm\x11\x94.\xd4Q\t\xd0\x1fM\x94\x1e\x04\x8b\x04l'
p678
ssS'_usr_local_lib_python2_7_dist-packages_django_contrib_sites_shortcuts'
p679
(dp680
g6
(dp681
g8
S'_usr_local_lib_python2_7_dist-packages_django_contrib_sites_shortcuts.html'
p682
sg10
S'/usr/local/lib/python2.7/dist-packages/django/contrib/sites/shortcuts'
p683
sg12
g13
(g14
g15
NtRp684
(dp685
g18
I1
sg19
I0
sg20
I8
sg21
I0
sg22
I0
sg23
I5
sg24
I0
sbssg25
S'\xf5\x9b$[G\x9a"\x80\xe8\x81\x1f\xb9\xcf\xd0YB'
p686
ssS'_usr_local_lib_python2_7_dist-packages_phonenumbers_data_alt_format_676'
p687
(dp688
g6
(dp689
g8
S'_usr_local_lib_python2_7_dist-packages_phonenumbers_data_alt_format_676.html'
p690
sg10
S'/usr/local/lib/python2.7/dist-packages/phonenumbers/data/alt_format_676'
p691
sg12
g13
(g14
g15
NtRp692
(dp693
g18
I1
sg19
I0
sg20
I2
sg21
I0
sg22
I0
sg23
I0
sg24
I0
sbssg25
S'\xb8\xc4j7k6\x85\xc8]\r\xa3Je+\x86\xcf'
p694
ssS'_usr_local_lib_python2_7_dist-packages_phonenumbers_data_alt_format_675'
p695
(dp696
g6
(dp697
g8
S'_usr_local_lib_python2_7_dist-packages_phonenumbers_data_alt_format_675.html'
p698
sg10
S'/usr/local/lib/python2.7/dist-packages/phonenumbers/data/alt_format_675'
p699
sg12
g13
(g14
g15
NtRp700
(dp701
g18
I1
sg19
I0
sg20
I2
sg21
I0
sg22
I0
sg23
I0
sg24
I0
sbssg25
S'\x8b\xfbv&\tV\xa4\xber\xa2a=\xe8\x15\xfe>'
p702
ssS'_usr_local_lib_python2_7_dist-packages_django_contrib_sessions_backends_db'
p703
(dp704
g6
(dp705
g8
S'_usr_local_lib_python2_7_dist-packages_django_contrib_sessions_backends_db.html'
p706
sg10
S'/usr/local/lib/python2.7/dist-packages/django/contrib/sessions/backends/db'
p707
sg12
g13
(g14
g15
NtRp708
(dp709
g18
I1
sg19
I0
sg20
I54
sg21
I0
sg22
I0
sg23
I39
sg24
I0
sbssg25
S'\xd8fY\x9bdk\xef\x8c\xd0v\xb0w\x86S\xf0\xfc'
p710
ssS'_usr_local_lib_python2_7_dist-packages_phonenumbers_data_alt_format_679'
p711
(dp712
g6
(dp713
g8
S'_usr_local_lib_python2_7_dist-packages_phonenumbers_data_alt_format_679.html'
p714
sg10
S'/usr/local/lib/python2.7/dist-packages/phonenumbers/data/alt_format_679'
p715
sg12
g13
(g14
g15
NtRp716
(dp717
g18
I1
sg19
I0
sg20
I2
sg21
I0
sg22
I0
sg23
I0
sg24
I0
sbssg25
S'\x98D\xff.W\n:\x7fPT\x1b\xdeaPOp'
p718
ssS'_usr_local_lib_python2_7_dist-packages_django_contrib_staticfiles_apps'
p719
(dp720
g6
(dp721
g8
S'_usr_local_lib_python2_7_dist-packages_django_contrib_staticfiles_apps.html'
p722
sg10
S'/usr/local/lib/python2.7/dist-packages/django/contrib/staticfiles/apps'
p723
sg12
g13
(g14
g15
NtRp724
(dp725
g18
I1
sg19
I0
sg20
I5
sg21
I0
sg22
I0
sg23
I0
sg24
I0
sbssg25
S'e\x15Q\xe2\xc0,Q\x16\x80\xc7\x0eO8+\x980'
p726
ssS'_usr_local_lib_python2_7_dist-packages_django_http___init__'
p727
(dp728
g6
(dp729
g8
S'_usr_local_lib_python2_7_dist-packages_django_http___init__.html'
p730
sg10
S'/usr/local/lib/python2.7/dist-packages/django/http/__init__'
p731
sg12
g13
(g14
g15
NtRp732
(dp733
g18
I1
sg19
I0
sg20
I5
sg21
I0
sg22
I0
sg23
I0
sg24
I0
sbssg25
S'\xf9T\x14\x9e`\xa7\xec\xc3\x08\xf0q\xadCJJC'
p734
ssS'_usr_local_lib_python2_7_dist-packages_django_template_defaultfilters'
p735
(dp736
g6
(dp737
g8
S'_usr_local_lib_python2_7_dist-packages_django_template_defaultfilters.html'
p738
sg10
S'/usr/local/lib/python2.7/dist-packages/django/template/defaultfilters'
p739
sg12
g13
(g14
g15
NtRp740
(dp741
g18
I1
sg19
I0
sg20
I466
sg21
I0
sg22
I0
sg23
I336
sg24
I0
sbssg25
S'\xd7[p\xe0b\x94/\x02[\xe4\xda\xc2C\xd89\xda'
p742
ssS'_usr_local_lib_python2_7_dist-packages_django_db_migrations_autodetector'
p743
(dp744
g120
(dp745
g86
S'_usr_local_lib_python2_7_dist-packages_django_db_migrations_autodetector.html'
p746
sg88
S'/usr/local/lib/python2.7/dist-packages/django/db/migrations/autodetector'
p747
sg90
g13
(g14
g15
NtRp748
(dp749
g18
I1
sg19
I0
sg20
I538
sg21
I0
sg22
I0
sg23
I494
sg24
I0
sbssg126
S'\x10\x98\x0f]uE\x86Mt\xf5\x04\xbf\xb3\xc0\x17Q'
p750
ssS'_usr_local_lib_python2_7_dist-packages_django_core_cache_backends_base'
p751
(dp752
g6
(dp753
g86
S'_usr_local_lib_python2_7_dist-packages_django_core_cache_backends_base.html'
p754
sg88
S'/usr/local/lib/python2.7/dist-packages/django/core/cache/backends/base'
p755
sg90
g13
(g14
g15
NtRp756
(dp757
g18
I1
sg19
I0
sg20
I108
sg21
I0
sg22
I0
sg23
I58
sg24
I0
sbssg25
S'\xa7\xfb<\x87\xfflg\x99\xc5\xdfa\x9bD\x03\x87_'
p758
ssS'_usr_local_lib_python2_7_dist-packages_django_utils_cache'
p759
(dp760
g6
(dp761
g8
S'_usr_local_lib_python2_7_dist-packages_django_utils_cache.html'
p762
sg10
S'/usr/local/lib/python2.7/dist-packages/django/utils/cache'
p763
sg12
g13
(g14
g15
NtRp764
(dp765
g18
I1
sg19
I0
sg20
I133
sg21
I0
sg22
I0
sg23
I109
sg24
I0
sbssg25
S'\xc5%R\xf5oF1\xd8\xff\x82KyFB\nj'
p766
ssS'_usr_local_lib_python2_7_dist-packages_django_contrib_admin_checks'
p767
(dp768
g6
(dp769
g8
S'_usr_local_lib_python2_7_dist-packages_django_contrib_admin_checks.html'
p770
sg10
S'/usr/local/lib/python2.7/dist-packages/django/contrib/admin/checks'
p771
sg12
g13
(g14
g15
NtRp772
(dp773
g18
I1
sg19
I0
sg20
I400
sg21
I0
sg22
I0
sg23
I205
sg24
I0
sbssg25
S'\x1b\x14_\x9cG\xdd\x0c2bLr\x07\xa5#\x9f\x02'
p774
ssS'_usr_local_lib_python2_7_dist-packages_django_template_smartif'
p775
(dp776
g6
(dp777
g8
S'_usr_local_lib_python2_7_dist-packages_django_template_smartif.html'
p778
sg10
S'/usr/local/lib/python2.7/dist-packages/django/template/smartif'
p779
sg12
g13
(g14
g15
NtRp780
(dp781
g18
I1
sg19
I0
sg20
I108
sg21
I0
sg22
I0
sg23
I63
sg24
I0
sbssg25
S'<\xe2\x94"*\x86\x88\xdb.\xcf\x92\x93\xa3ps\xf6'
p782
ssS'_usr_local_lib_python2_7_dist-packages_django_core_files___init__'
p783
(dp784
g6
(dp785
g8
S'_usr_local_lib_python2_7_dist-packages_django_core_files___init__.html'
p786
sg10
S'/usr/local/lib/python2.7/dist-packages/django/core/files/__init__'
p787
sg12
g13
(g14
g15
NtRp788
(dp789
g18
I1
sg19
I0
sg20
I2
sg21
I0
sg22
I0
sg23
I0
sg24
I0
sbssg25
S'i\xe6\xf12\xa4X\xf0\xf2?\x9aZ\xbb&\xa6\x1f^'
p790
ssS'_usr_local_lib_python2_7_dist-packages_django_contrib_contenttypes_fields'
p791
(dp792
g6
(dp793
g8
S'_usr_local_lib_python2_7_dist-packages_django_contrib_contenttypes_fields.html'
p794
sg10
S'/usr/local/lib/python2.7/dist-packages/django/contrib/contenttypes/fields'
p795
sg12
g13
(g14
g15
NtRp796
(dp797
g18
I1
sg19
I0
sg20
I310
sg21
I0
sg22
I0
sg23
I246
sg24
I0
sbssg25
S'\x17\xa9\x1d\x90\x91\xf5\xdd\xf7\x83\xfe\xc5\xa8Ee\xe1\x9b'
p798
ssS'_usr_local_lib_python2_7_dist-packages_django_db_backends_sqlite3_schema'
p799
(dp800
g6
(dp801
g86
S'_usr_local_lib_python2_7_dist-packages_django_db_backends_sqlite3_schema.html'
p802
sg88
S'/usr/local/lib/python2.7/dist-packages/django/db/backends/sqlite3/schema'
p803
sg90
g13
(g14
g15
NtRp804
(dp805
g18
I1
sg19
I0
sg20
I112
sg21
I0
sg22
I0
sg23
I49
sg24
I0
sbssg25
S'\x15.\xca\xff\xb1\xbe\x1d`\xf7\xf2\xc8W\x18\xb0<\xa8'
p806
ssS'_usr_local_lib_python2_7_dist-packages_django_db_models_aggregates'
p807
(dp808
g6
(dp809
g8
S'_usr_local_lib_python2_7_dist-packages_django_db_models_aggregates.html'
p810
sg10
S'/usr/local/lib/python2.7/dist-packages/django/db/models/aggregates'
p811
sg12
g13
(g14
g15
NtRp812
(dp813
g18
I1
sg19
I0
sg20
I87
sg21
I0
sg22
I0
sg23
I44
sg24
I0
sbssg25
S'm\xfc\xba\x9b6\xe2\x80\xd8%\xee\xd7\xef\xc3\xee:W'
p814
ssS'_usr_local_lib_python2_7_dist-packages_django_middleware___init__'
p815
(dp816
g6
(dp817
g8
S'_usr_local_lib_python2_7_dist-packages_django_middleware___init__.html'
p818
sg10
S'/usr/local/lib/python2.7/dist-packages/django/middleware/__init__'
p819
sg12
g13
(g14
g15
NtRp820
(dp821
g18
I1
sg19
I0
sg20
I0
sg21
I0
sg22
I0
sg23
I0
sg24
I0
sbssg25
S'\xb0\xc8pN\xaf>\xa0\xbaz\x144\xe0A9\xb8?'
p822
ssS'_usr_local_lib_python2_7_dist-packages_django_utils_formats'
p823
(dp824
g6
(dp825
g8
S'_usr_local_lib_python2_7_dist-packages_django_utils_formats.html'
p826
sg10
S'/usr/local/lib/python2.7/dist-packages/django/utils/formats'
p827
sg12
g13
(g14
g15
NtRp828
(dp829
g18
I1
sg19
I0
sg20
I125
sg21
I0
sg22
I0
sg23
I100
sg24
I0
sbssg25
S'\xa6)j\xc4\xa4r\xa1\x05\xab\x08\x85=\xe4\xf4Qz'
p830
ssS'_usr_local_lib_python2_7_dist-packages_django_apps_registry'
p831
(dp832
g6
(dp833
g86
S'_usr_local_lib_python2_7_dist-packages_django_apps_registry.html'
p834
sg88
S'/usr/local/lib/python2.7/dist-packages/django/apps/registry'
p835
sg90
g13
(g14
g15
NtRp836
(dp837
g18
I1
sg19
I0
sg20
I186
sg21
I0
sg22
I0
sg23
I75
sg24
I0
sbssg25
S'H\x82\xd0\x99\x80@T\xa5L\x83\x82[\x1f\x1c?\x18'
p838
ssS'_usr_local_lib_python2_7_dist-packages_django_core_exceptions'
p839
(dp840
g6
(dp841
g8
S'_usr_local_lib_python2_7_dist-packages_django_core_exceptions.html'
p842
sg10
S'/usr/local/lib/python2.7/dist-packages/django/core/exceptions'
p843
sg12
g13
(g14
g15
NtRp844
(dp845
g18
I1
sg19
I0
sg20
I87
sg21
I0
sg22
I0
sg23
I47
sg24
I0
sbssg25
S'l)\xd6\x7f\xb6\xa2\xac\x99bw\xe4\x07\xf8-/\xf4'
p846
ssS'_usr_local_lib_python2_7_dist-packages_crispy_forms_exceptions'
p847
(dp848
g6
(dp849
g8
S'_usr_local_lib_python2_7_dist-packages_crispy_forms_exceptions.html'
p850
sg10
S'/usr/local/lib/python2.7/dist-packages/crispy_forms/exceptions'
p851
sg12
g13
(g14
g15
NtRp852
(dp853
g18
I1
sg19
I0
sg20
I6
sg21
I0
sg22
I0
sg23
I0
sg24
I0
sbssg25
S'e\xef\x97\x8f2\xe0 \x8f \x80\x86j\x7f=u\x85'
p854
ssS'_usr_local_lib_python2_7_dist-packages_django_db_backends_base___init__'
p855
(dp856
g6
(dp857
g8
S'_usr_local_lib_python2_7_dist-packages_django_db_backends_base___init__.html'
p858
sg10
S'/usr/local/lib/python2.7/dist-packages/django/db/backends/base/__init__'
p859
sg12
g13
(g14
g15
NtRp860
(dp861
g18
I1
sg19
I0
sg20
I0
sg21
I0
sg22
I0
sg23
I0
sg24
I0
sbssg25
S'\xb0\xc8pN\xaf>\xa0\xbaz\x144\xe0A9\xb8?'
p862
ssS'_usr_local_lib_python2_7_dist-packages_django_contrib_sessions_management___init__'
p863
(dp864
g120
(dp865
g86
S'_usr_local_lib_python2_7_dist-packages_django_contrib_sessions_management___init__.html'
p866
sg88
S'/usr/local/lib/python2.7/dist-packages/django/contrib/sessions/management/__init__'
p867
sg90
g13
(g14
g15
NtRp868
(dp869
g18
I1
sg19
I0
sg20
I0
sg21
I0
sg22
I0
sg23
I0
sg24
I0
sbssg126
S'\xb0\xc8pN\xaf>\xa0\xbaz\x144\xe0A9\xb8?'
p870
ssS'_usr_local_lib_python2_7_dist-packages_django_db_backends_sqlite3_base'
p871
(dp872
g6
(dp873
g86
S'_usr_local_lib_python2_7_dist-packages_django_db_backends_sqlite3_base.html'
p874
sg88
S'/usr/local/lib/python2.7/dist-packages/django/db/backends/sqlite3/base'
p875
sg90
g13
(g14
g15
NtRp876
(dp877
g18
I1
sg19
I0
sg20
I218
sg21
I0
sg22
I0
sg23
I94
sg24
I0
sbssg25
S'\xef\xd2\xcdY6`\xa8G\xaa\xebU\x8d\x87?|;'
p878
ssS'_usr_local_lib_python2_7_dist-packages_django_core_files_uploadhandler'
p879
(dp880
g6
(dp881
g8
S'_usr_local_lib_python2_7_dist-packages_django_core_files_uploadhandler.html'
p882
sg10
S'/usr/local/lib/python2.7/dist-packages/django/core/files/uploadhandler'
p883
sg12
g13
(g14
g15
NtRp884
(dp885
g18
I1
sg19
I0
sg20
I78
sg21
I0
sg22
I0
sg23
I42
sg24
I0
sbssg25
S'\x87\xeb.\x85\xf0\xa8\x17\xe9\x18\xb9y|\x1c\xce\xf8\xee'
p886
ssS'_usr_local_lib_python2_7_dist-packages_phonenumbers_data_alt_format_359'
p887
(dp888
g6
(dp889
g8
S'_usr_local_lib_python2_7_dist-packages_phonenumbers_data_alt_format_359.html'
p890
sg10
S'/usr/local/lib/python2.7/dist-packages/phonenumbers/data/alt_format_359'
p891
sg12
g13
(g14
g15
NtRp892
(dp893
g18
I1
sg19
I0
sg20
I2
sg21
I0
sg22
I0
sg23
I0
sg24
I0
sbssg25
S'Y\x16u\xf6\\\x10\x93\xda\xb8\x8fI2\x1d#.~'
p894
ssS'_usr_local_lib_python2_7_dist-packages_phonenumbers_data_alt_format_358'
p895
(dp896
g6
(dp897
g8
S'_usr_local_lib_python2_7_dist-packages_phonenumbers_data_alt_format_358.html'
p898
sg10
S'/usr/local/lib/python2.7/dist-packages/phonenumbers/data/alt_format_358'
p899
sg12
g13
(g14
g15
NtRp900
(dp901
g18
I1
sg19
I0
sg20
I2
sg21
I0
sg22
I0
sg23
I0
sg24
I0
sbssg25
S'\n/\xd3\xc3\xdd\xaeT\x11\x8e\xf5Zw\xf4V\x0c\xd5'
p902
ssS'_usr_local_lib_python2_7_dist-packages_django_core_cache_backends___init__'
p903
(dp904
g6
(dp905
g8
S'_usr_local_lib_python2_7_dist-packages_django_core_cache_backends___init__.html'
p906
sg10
S'/usr/local/lib/python2.7/dist-packages/django/core/cache/backends/__init__'
p907
sg12
g13
(g14
g15
NtRp908
(dp909
g18
I1
sg19
I0
sg20
I0
sg21
I0
sg22
I0
sg23
I0
sg24
I0
sbssg25
S'\xb0\xc8pN\xaf>\xa0\xbaz\x144\xe0A9\xb8?'
p910
ssS'_usr_local_lib_python2_7_dist-packages_django_template_base'
p911
(dp912
g6
(dp913
g8
S'_usr_local_lib_python2_7_dist-packages_django_template_base.html'
p914
sg10
S'/usr/local/lib/python2.7/dist-packages/django/template/base'
p915
sg12
g13
(g14
g15
NtRp916
(dp917
g18
I1
sg19
I0
sg20
I785
sg21
I0
sg22
I0
sg23
I568
sg24
I0
sbssg25
S'RT\x16F\x1a$\xff\xee?k\xf9\x883\x8a\xe4t'
p918
ssS'_usr_local_lib_python2_7_dist-packages_django_core_checks_security_csrf'
p919
(dp920
g6
(dp921
g8
S'_usr_local_lib_python2_7_dist-packages_django_core_checks_security_csrf.html'
p922
sg10
S'/usr/local/lib/python2.7/dist-packages/django/core/checks/security/csrf'
p923
sg12
g13
(g14
g15
NtRp924
(dp925
g18
I1
sg19
I0
sg20
I16
sg21
I0
sg22
I0
sg23
I7
sg24
I0
sbssg25
S"\xcd\xe7\x9b\xb9\xb9\x91gL\x9a\x06d`\x02h'\xe9"
p926
ssS'_usr_local_lib_python2_7_dist-packages_django_template_backends___init__'
p927
(dp928
g6
(dp929
g8
S'_usr_local_lib_python2_7_dist-packages_django_template_backends___init__.html'
p930
sg10
S'/usr/local/lib/python2.7/dist-packages/django/template/backends/__init__'
p931
sg12
g13
(g14
g15
NtRp932
(dp933
g18
I1
sg19
I0
sg20
I0
sg21
I0
sg22
I0
sg23
I0
sg24
I0
sbssg25
S'\xb0\xc8pN\xaf>\xa0\xbaz\x144\xe0A9\xb8?'
p934
ssS'_usr_local_lib_python2_7_dist-packages_django_core_management_commands___init__'
p935
(dp936
g6
(dp937
g8
S'_usr_local_lib_python2_7_dist-packages_django_core_management_commands___init__.html'
p938
sg10
S'/usr/local/lib/python2.7/dist-packages/django/core/management/commands/__init__'
p939
sg12
g13
(g14
g15
NtRp940
(dp941
g18
I1
sg19
I0
sg20
I0
sg21
I0
sg22
I0
sg23
I0
sg24
I0
sbssg25
S'\xb0\xc8pN\xaf>\xa0\xbaz\x144\xe0A9\xb8?'
p942
ssS'_usr_local_lib_python2_7_dist-packages_phonenumbers_data_alt_format_352'
p943
(dp944
g6
(dp945
g8
S'_usr_local_lib_python2_7_dist-packages_phonenumbers_data_alt_format_352.html'
p946
sg10
S'/usr/local/lib/python2.7/dist-packages/phonenumbers/data/alt_format_352'
p947
sg12
g13
(g14
g15
NtRp948
(dp949
g18
I1
sg19
I0
sg20
I2
sg21
I0
sg22
I0
sg23
I0
sg24
I0
sbssg25
S'\t5b]sL\xcdt\xfd\xef\xa4)&\x9e\xf1N'
p950
ssS'_usr_local_lib_python2_7_dist-packages_django_conf_global_settings'
p951
(dp952
g6
(dp953
g8
S'_usr_local_lib_python2_7_dist-packages_django_conf_global_settings.html'
p954
sg10
S'/usr/local/lib/python2.7/dist-packages/django/conf/global_settings'
p955
sg12
g13
(g14
g15
NtRp956
(dp957
g18
I1
sg19
I0
sg20
I136
sg21
I0
sg22
I0
sg23
I0
sg24
I0
sbssg25
S'\x97t\x0c\x11\xd5\x81\xadm\xd1\xa1\x1d\x17cU\xc7\xfb'
p958
ssS'_usr_local_lib_python2_7_dist-packages_django_core_files_base'
p959
(dp960
g6
(dp961
g8
S'_usr_local_lib_python2_7_dist-packages_django_core_files_base.html'
p962
sg10
S'/usr/local/lib/python2.7/dist-packages/django/core/files/base'
p963
sg12
g13
(g14
g15
NtRp964
(dp965
g18
I1
sg19
I0
sg20
I119
sg21
I0
sg22
I0
sg23
I80
sg24
I0
sbssg25
S"#\xf1\xd0b\xfa'\x19\xc0\x96\xd3\xe4:\xc4\x1e\xeb("
p966
ssS'_usr_local_lib_python2_7_dist-packages_django_forms_forms'
p967
(dp968
g6
(dp969
g8
S'_usr_local_lib_python2_7_dist-packages_django_forms_forms.html'
p970
sg10
S'/usr/local/lib/python2.7/dist-packages/django/forms/forms'
p971
sg12
g13
(g14
g15
NtRp972
(dp973
g18
I1
sg19
I0
sg20
I354
sg21
I0
sg22
I0
sg23
I264
sg24
I0
sbssg25
S'f\x97q[\xf1\xd4\xbbie\xe7\xc0\x9d\x862\x13\xe0'
p974
ssS'ipcms_settings'
p975
(dp976
g6
(dp977
g8
S'ipcms_settings.html'
p978
sg10
S'ipcms/settings'
p979
sg12
g13
(g14
g15
NtRp980
(dp981
g18
I1
sg19
I0
sg20
I20
sg21
I0
sg22
I0
sg23
I0
sg24
I0
sbssg25
S'CM$\xb3\x93Y\xd8\xean\xe9\xbe\x06\xb4\xcf\x852'
p982
ssS'_usr_local_lib_python2_7_dist-packages_django_contrib_admin_decorators'
p983
(dp984
g6
(dp985
g8
S'_usr_local_lib_python2_7_dist-packages_django_contrib_admin_decorators.html'
p986
sg10
S'/usr/local/lib/python2.7/dist-packages/django/contrib/admin/decorators'
p987
sg12
g13
(g14
g15
NtRp988
(dp989
g18
I1
sg19
I0
sg20
I12
sg21
I0
sg22
I0
sg23
I11
sg24
I0
sbssg25
S'\xedELQ\xae\x96\xa0\xb9n\xf1i\xf2`36\xe3'
p990
ssS'_usr_local_lib_python2_7_dist-packages_django_utils_translation___init__'
p991
(dp992
g6
(dp993
g86
S'_usr_local_lib_python2_7_dist-packages_django_utils_translation___init__.html'
p994
sg88
S'/usr/local/lib/python2.7/dist-packages/django/utils/translation/__init__'
p995
sg90
g13
(g14
g15
NtRp996
(dp997
g18
I1
sg19
I0
sg20
I119
sg21
I0
sg22
I0
sg23
I48
sg24
I0
sbssg25
S'\xeb\xea\xf475\xfa\xe2\xd3E\x93\xf1W\xd4\xf9A\t'
p998
ssS'_usr_local_lib_python2_7_dist-packages_django_utils_safestring'
p999
(dp1000
g6
(dp1001
g8
S'_usr_local_lib_python2_7_dist-packages_django_utils_safestring.html'
p1002
sg10
S'/usr/local/lib/python2.7/dist-packages/django/utils/safestring'
p1003
sg12
g13
(g14
g15
NtRp1004
(dp1005
g18
I1
sg19
I0
sg20
I63
sg21
I0
sg22
I0
sg23
I34
sg24
I0
sbssg25
S'\xa3\x05\x98NuI\x1f\xfa\xc6-\xee|@\xe5\xa03'
p1006
ssS'_usr_local_lib_python2_7_dist-packages_django_http_utils'
p1007
(dp1008
g6
(dp1009
g8
S'_usr_local_lib_python2_7_dist-packages_django_http_utils.html'
p1010
sg10
S'/usr/local/lib/python2.7/dist-packages/django/http/utils'
p1011
sg12
g13
(g14
g15
NtRp1012
(dp1013
g18
I1
sg19
I0
sg20
I15
sg21
I0
sg22
I0
sg23
I13
sg24
I0
sbssg25
S'u\x05\xcf\xe7"5w\x89`2bY\xcc\xfc\xd1\x83'
p1014
ssS'_usr_local_lib_python2_7_dist-packages_django_db_models_sql_query'
p1015
(dp1016
g6
(dp1017
g86
S'_usr_local_lib_python2_7_dist-packages_django_db_models_sql_query.html'
p1018
sg88
S'/usr/local/lib/python2.7/dist-packages/django/db/models/sql/query'
p1019
sg90
g13
(g14
g15
NtRp1020
(dp1021
g18
I1
sg19
I0
sg20
I1071
sg21
I0
sg22
I0
sg23
I625
sg24
I0
sbssg25
S'`\x98\x19\x10q\x90\xce\xa0\xb0\xe3\xca\xe6~\x0ej\x84'
p1022
ssS'_usr_local_lib_python2_7_dist-packages_django_utils_functional'
p1023
(dp1024
g6
(dp1025
g86
S'_usr_local_lib_python2_7_dist-packages_django_utils_functional.html'
p1026
sg88
S'/usr/local/lib/python2.7/dist-packages/django/utils/functional'
p1027
sg90
g13
(g14
g15
NtRp1028
(dp1029
g18
I1
sg19
I0
sg20
I231
sg21
I0
sg22
I0
sg23
I101
sg24
I0
sbssg25
S'\x19\x8d\xbb\x03\xcf\xd6g\x0c&\xe1\xaa\x8f\xe6\x82\xcdF'
p1030
ssS'_usr_local_lib_python2_7_dist-packages_django_contrib_admin_templatetags___init__'
p1031
(dp1032
g6
(dp1033
g8
S'_usr_local_lib_python2_7_dist-packages_django_contrib_admin_templatetags___init__.html'
p1034
sg10
S'/usr/local/lib/python2.7/dist-packages/django/contrib/admin/templatetags/__init__'
p1035
sg12
g13
(g14
g15
NtRp1036
(dp1037
g18
I1
sg19
I0
sg20
I0
sg21
I0
sg22
I0
sg23
I0
sg24
I0
sbssg25
S'\xb0\xc8pN\xaf>\xa0\xbaz\x144\xe0A9\xb8?'
p1038
ssS'_usr_local_lib_python2_7_dist-packages_phonenumbers_data_alt_format_91'
p1039
(dp1040
g6
(dp1041
g8
S'_usr_local_lib_python2_7_dist-packages_phonenumbers_data_alt_format_91.html'
p1042
sg10
S'/usr/local/lib/python2.7/dist-packages/phonenumbers/data/alt_format_91'
p1043
sg12
g13
(g14
g15
NtRp1044
(dp1045
g18
I1
sg19
I0
sg20
I2
sg21
I0
sg22
I0
sg23
I0
sg24
I0
sbssg25
S'A\xdbM\xc6\xc9\x15K\xa8\xe3+e`\x15\x9f%k'
p1046
ssS'_usr_local_lib_python2_7_dist-packages_phonenumbers_data_alt_format_90'
p1047
(dp1048
g6
(dp1049
g8
S'_usr_local_lib_python2_7_dist-packages_phonenumbers_data_alt_format_90.html'
p1050
sg10
S'/usr/local/lib/python2.7/dist-packages/phonenumbers/data/alt_format_90'
p1051
sg12
g13
(g14
g15
NtRp1052
(dp1053
g18
I1
sg19
I0
sg20
I2
sg21
I0
sg22
I0
sg23
I0
sg24
I0
sbssg25
S'\x84\x17\xb8T\xcb\x0b\xf8\x8a!\xb5\x95\x9d\xedZ\xe7['
p1054
ssS'_usr_local_lib_python2_7_dist-packages_django_db_backends_sqlite3_creation'
p1055
(dp1056
g6
(dp1057
g86
S'_usr_local_lib_python2_7_dist-packages_django_db_backends_sqlite3_creation.html'
p1058
sg88
S'/usr/local/lib/python2.7/dist-packages/django/db/backends/sqlite3/creation'
p1059
sg90
g13
(g14
g15
NtRp1060
(dp1061
g18
I1
sg19
I0
sg20
I47
sg21
I0
sg22
I0
sg23
I21
sg24
I0
sbssg25
S'\xa8\x9b\xec.\xae\x0cl\xdf\xc1\xd8\xa2\x87\x84M\x82\xab'
p1062
ssS'_usr_local_lib_python2_7_dist-packages_phonenumbers_data_alt_format_95'
p1063
(dp1064
g6
(dp1065
g8
S'_usr_local_lib_python2_7_dist-packages_phonenumbers_data_alt_format_95.html'
p1066
sg10
S'/usr/local/lib/python2.7/dist-packages/phonenumbers/data/alt_format_95'
p1067
sg12
g13
(g14
g15
NtRp1068
(dp1069
g18
I1
sg19
I0
sg20
I2
sg21
I0
sg22
I0
sg23
I0
sg24
I0
sbssg25
S'\xb6\xa3\xc6a]7\x9fg\x93\xc9\x80A\xbdp{\xcb'
p1070
ssS'_usr_local_lib_python2_7_dist-packages_phonenumbers_data_alt_format_94'
p1071
(dp1072
g6
(dp1073
g8
S'_usr_local_lib_python2_7_dist-packages_phonenumbers_data_alt_format_94.html'
p1074
sg10
S'/usr/local/lib/python2.7/dist-packages/phonenumbers/data/alt_format_94'
p1075
sg12
g13
(g14
g15
NtRp1076
(dp1077
g18
I1
sg19
I0
sg20
I2
sg21
I0
sg22
I0
sg23
I0
sg24
I0
sbssg25
S'#}\x8c\x85\x9b\xed\xb5\xc4I\xc5\x1a\xa7\x19\xea\xd5\x00'
p1078
ssS'_usr_local_lib_python2_7_dist-packages_django_core_management_commands_migrate'
p1079
(dp1080
g120
(dp1081
g86
S'_usr_local_lib_python2_7_dist-packages_django_core_management_commands_migrate.html'
p1082
sg88
S'/usr/local/lib/python2.7/dist-packages/django/core/management/commands/migrate'
p1083
sg90
g13
(g14
g15
NtRp1084
(dp1085
g18
I1
sg19
I0
sg20
I198
sg21
I0
sg22
I0
sg23
I59
sg24
I0
sbssg126
S'\xc3\x8a\xe3\xac+t\xe5L\xa3\x08\xe3\x91\xfe\xcf\xb0\x03'
p1086
ssS'_usr_local_lib_python2_7_dist-packages_django_utils_html_parser'
p1087
(dp1088
g6
(dp1089
g8
S'_usr_local_lib_python2_7_dist-packages_django_utils_html_parser.html'
p1090
sg10
S'/usr/local/lib/python2.7/dist-packages/django/utils/html_parser'
p1091
sg12
g13
(g14
g15
NtRp1092
(dp1093
g18
I1
sg19
I0
sg20
I90
sg21
I0
sg22
I0
sg23
I80
sg24
I0
sbssg25
S'r\xa1\x9d\xc4\xe6b\xc2\x8d5\xcbg\xc7\xb3\xfc\xb7\xcd'
p1094
ssS'_usr_local_lib_python2_7_dist-packages_django_db_backends_base_features'
p1095
(dp1096
g6
(dp1097
g8
S'_usr_local_lib_python2_7_dist-packages_django_db_backends_base_features.html'
p1098
sg10
S'/usr/local/lib/python2.7/dist-packages/django/db/backends/base/features'
p1099
sg12
g13
(g14
g15
NtRp1100
(dp1101
g18
I1
sg19
I0
sg20
I97
sg21
I0
sg22
I0
sg23
I18
sg24
I0
sbssg25
S'Ny^\xaa\x05\x8c\x0e\xab~\x9f\x8cJWDIy'
p1102
ssS'_usr_local_lib_python2_7_dist-packages_phonenumbers_data_alt_format_855'
p1103
(dp1104
g6
(dp1105
g8
S'_usr_local_lib_python2_7_dist-packages_phonenumbers_data_alt_format_855.html'
p1106
sg10
S'/usr/local/lib/python2.7/dist-packages/phonenumbers/data/alt_format_855'
p1107
sg12
g13
(g14
g15
NtRp1108
(dp1109
g18
I1
sg19
I0
sg20
I2
sg21
I0
sg22
I0
sg23
I0
sg24
I0
sbssg25
S'\x85\x11\x1ewb&\xa24\xe2\xa4\xecL\x07!\xa3<'
p1110
ssS'_usr_local_lib_python2_7_dist-packages_django_apps_config'
p1111
(dp1112
g6
(dp1113
g86
S'_usr_local_lib_python2_7_dist-packages_django_apps_config.html'
p1114
sg88
S'/usr/local/lib/python2.7/dist-packages/django/apps/config'
p1115
sg90
g13
(g14
g15
NtRp1116
(dp1117
g18
I1
sg19
I0
sg20
I84
sg21
I0
sg22
I0
sg23
I21
sg24
I0
sbssg25
S'\xce\x1c\x8c\xaf\xf7t\x92\xe0v\xab\xfc\x8e\xe7\x8c\xb6\xf0'
p1118
ssS'_usr_local_lib_python2_7_dist-packages_django_db_models_sql_constants'
p1119
(dp1120
g6
(dp1121
g8
S'_usr_local_lib_python2_7_dist-packages_django_db_models_sql_constants.html'
p1122
sg10
S'/usr/local/lib/python2.7/dist-packages/django/db/models/sql/constants'
p1123
sg12
g13
(g14
g15
NtRp1124
(dp1125
g18
I1
sg19
I0
sg20
I11
sg21
I0
sg22
I0
sg23
I0
sg24
I0
sbssg25
S'\xea9\xbf\xc9ZC@Iim\x07\xfd6\x8aE\x91'
p1126
ssS'ipcms_admin'
p1127
(dp1128
g6
(dp1129
g8
S'ipcms_admin.html'
p1130
sg10
S'ipcms/admin'
p1131
sg12
g13
(g14
g15
NtRp1132
(dp1133
g18
I1
sg19
I0
sg20
I17
sg21
I0
sg22
I0
sg23
I0
sg24
I0
sbssg25
S'\x80uP\x7f\x97\xfc\xa6\xed\x14\xd5\x94\xda\xe4\xcc7\xcc'
p1134
ssS'_usr_local_lib_python2_7_dist-packages_django_views_decorators_debug'
p1135
(dp1136
g6
(dp1137
g8
S'_usr_local_lib_python2_7_dist-packages_django_views_decorators_debug.html'
p1138
sg10
S'/usr/local/lib/python2.7/dist-packages/django/views/decorators/debug'
p1139
sg12
g13
(g14
g15
NtRp1140
(dp1141
g18
I1
sg19
I0
sg20
I21
sg21
I0
sg22
I0
sg23
I13
sg24
I0
sbssg25
S'%\x95J\xd11\x82{ay\x0ep\xc46\xc8\xbcB'
p1142
ssS'_usr_local_lib_python2_7_dist-packages_django_template___init__'
p1143
(dp1144
g6
(dp1145
g8
S'_usr_local_lib_python2_7_dist-packages_django_template___init__.html'
p1146
sg10
S'/usr/local/lib/python2.7/dist-packages/django/template/__init__'
p1147
sg12
g13
(g14
g15
NtRp1148
(dp1149
g18
I1
sg19
I0
sg20
I10
sg21
I0
sg22
I0
sg23
I0
sg24
I0
sbssg25
S'\x06\\{md\xd6\x92?q\xff\xeb\xd3\xc2A\x0f)'
p1150
ssS'_usr_local_lib_python2_7_dist-packages_django_contrib_contenttypes_models'
p1151
(dp1152
g6
(dp1153
g86
S'_usr_local_lib_python2_7_dist-packages_django_contrib_contenttypes_models.html'
p1154
sg88
S'/usr/local/lib/python2.7/dist-packages/django/contrib/contenttypes/models'
p1155
sg90
g13
(g14
g15
NtRp1156
(dp1157
g18
I1
sg19
I0
sg20
I116
sg21
I0
sg22
I0
sg23
I59
sg24
I0
sbssg25
S'\xb7\x1a\xe1\x8es\xbf,\x1b\xdb\x94\x1e\xc07\x98\r\x01'
p1158
ssS'_usr_local_lib_python2_7_dist-packages_crispy_forms_helper'
p1159
(dp1160
g6
(dp1161
g8
S'_usr_local_lib_python2_7_dist-packages_crispy_forms_helper.html'
p1162
sg10
S'/usr/local/lib/python2.7/dist-packages/crispy_forms/helper'
p1163
sg12
g13
(g14
g15
NtRp1164
(dp1165
g18
I1
sg19
I0
sg20
I197
sg21
I0
sg22
I0
sg23
I132
sg24
I0
sbssg25
S"\x0c'\xf8A1\xb5\xf1\x88\x8f\xaerB\xa3v\xcbH"
p1166
ssS'_usr_local_lib_python2_7_dist-packages_crispy_forms_compatibility'
p1167
(dp1168
g6
(dp1169
g8
S'_usr_local_lib_python2_7_dist-packages_crispy_forms_compatibility.html'
p1170
sg10
S'/usr/local/lib/python2.7/dist-packages/crispy_forms/compatibility'
p1171
sg12
g13
(g14
g15
NtRp1172
(dp1173
g18
I1
sg19
I0
sg20
I11
sg21
I0
sg22
I0
sg23
I4
sg24
I0
sbssg25
S'\x13\x19\xffL\x93\x96\xe6\x0c#~Xu\xb5w6\xb8'
p1174
ssS'_usr_local_lib_python2_7_dist-packages_django_db_backends_utils'
p1175
(dp1176
g6
(dp1177
g86
S'_usr_local_lib_python2_7_dist-packages_django_db_backends_utils.html'
p1178
sg88
S'/usr/local/lib/python2.7/dist-packages/django/db/backends/utils'
p1179
sg90
g13
(g14
g15
NtRp1180
(dp1181
g18
I1
sg19
I0
sg20
I128
sg21
I0
sg22
I0
sg23
I82
sg24
I0
sbssg25
S'\x00\xb6\xe3\xd07d{\x95w.\t\x1ckR\xa0D'
p1182
ssS'_usr_local_lib_python2_7_dist-packages_django_db_migrations_operations_models'
p1183
(dp1184
g120
(dp1185
g86
S'_usr_local_lib_python2_7_dist-packages_django_db_migrations_operations_models.html'
p1186
sg88
S'/usr/local/lib/python2.7/dist-packages/django/db/migrations/operations/models'
p1187
sg90
g13
(g14
g15
NtRp1188
(dp1189
g18
I1
sg19
I0
sg20
I292
sg21
I0
sg22
I0
sg23
I167
sg24
I0
sbssg126
S'r\xb3n%X\x9fT!\xc9\xa4,cp\x1f\x93\x1f'
p1190
ssS'_usr_local_lib_python2_7_dist-packages_django_db_models_signals'
p1191
(dp1192
g6
(dp1193
g8
S'_usr_local_lib_python2_7_dist-packages_django_db_models_signals.html'
p1194
sg10
S'/usr/local/lib/python2.7/dist-packages/django/db/models/signals'
p1195
sg12
g13
(g14
g15
NtRp1196
(dp1197
g18
I1
sg19
I0
sg20
I43
sg21
I0
sg22
I0
sg23
I15
sg24
I0
sbssg25
S'T\xbb\x8a\x88y\x8e\xc6\x17ag\x90\xd0\x18\xa3*+'
p1198
ssS'_usr_local_lib_python2_7_dist-packages_django_core_checks_security_sessions'
p1199
(dp1200
g6
(dp1201
g8
S'_usr_local_lib_python2_7_dist-packages_django_core_checks_security_sessions.html'
p1202
sg10
S'/usr/local/lib/python2.7/dist-packages/django/core/checks/security/sessions'
p1203
sg12
g13
(g14
g15
NtRp1204
(dp1205
g18
I1
sg19
I0
sg20
I36
sg21
I0
sg22
I0
sg23
I20
sg24
I0
sbssg25
S'\xebH\xfb\xd9\xa5)6x\xdd\x1e\x86\x06\xb3o\x9a+'
p1206
ssS'_usr_local_lib_python2_7_dist-packages_django_core_checks_registry'
p1207
(dp1208
g6
(dp1209
g8
S'_usr_local_lib_python2_7_dist-packages_django_core_checks_registry.html'
p1210
sg10
S'/usr/local/lib/python2.7/dist-packages/django/core/checks/registry'
p1211
sg12
g13
(g14
g15
NtRp1212
(dp1213
g18
I1
sg19
I0
sg20
I51
sg21
I0
sg22
I0
sg23
I15
sg24
I0
sbssg25
S'\x02M\x9c\x93wj\xf0\x0b^\x96\xeeL\xbeg+\x85'
p1214
ssS'_usr_local_lib_python2_7_dist-packages_django_contrib_admin_sites'
p1215
(dp1216
g6
(dp1217
g8
S'_usr_local_lib_python2_7_dist-packages_django_contrib_admin_sites.html'
p1218
sg10
S'/usr/local/lib/python2.7/dist-packages/django/contrib/admin/sites'
p1219
sg12
g13
(g14
g15
NtRp1220
(dp1221
g18
I1
sg19
I0
sg20
I228
sg21
I0
sg22
I0
sg23
I154
sg24
I0
sbssg25
S'\xa1Fw\xc4EL\xc3=X\x84n\xe8\xa0 h\xe9'
p1222
ssS'_usr_local_lib_python2_7_dist-packages_phonenumber_field___init__'
p1223
(dp1224
g6
(dp1225
g8
S'_usr_local_lib_python2_7_dist-packages_phonenumber_field___init__.html'
p1226
sg10
S'/usr/local/lib/python2.7/dist-packages/phonenumber_field/__init__'
p1227
sg12
g13
(g14
g15
NtRp1228
(dp1229
g18
I1
sg19
I0
sg20
I1
sg21
I0
sg22
I0
sg23
I0
sg24
I0
sbssg25
S'\xd2\x9d\x12\xcbF\xa8\xf3\xba9\x17\xc0{6\x82\x81\xb7'
p1230
ssS'_usr_local_lib_python2_7_dist-packages_django_db_backends_sqlite3_features'
p1231
(dp1232
g6
(dp1233
g86
S'_usr_local_lib_python2_7_dist-packages_django_db_backends_sqlite3_features.html'
p1234
sg88
S'/usr/local/lib/python2.7/dist-packages/django/db/backends/sqlite3/features'
p1235
sg90
g13
(g14
g15
NtRp1236
(dp1237
g18
I1
sg19
I0
sg20
I48
sg21
I0
sg22
I0
sg23
I11
sg24
I0
sbssg25
S'\xe3\x18\xf0\xe7\xc40\x0ez(4\x84\x13\x84\xd0\x9fi'
p1238
ssS'_usr_local_lib_python2_7_dist-packages_django_core_checks_model_checks'
p1239
(dp1240
g6
(dp1241
g8
S'_usr_local_lib_python2_7_dist-packages_django_core_checks_model_checks.html'
p1242
sg10
S'/usr/local/lib/python2.7/dist-packages/django/core/checks/model_checks'
p1243
sg12
g13
(g14
g15
NtRp1244
(dp1245
g18
I1
sg19
I0
sg20
I28
sg21
I0
sg22
I0
sg23
I19
sg24
I0
sbssg25
S'\xd5\xfc\xd9\n\xd1\xbc\xfb\xb9\xc6=\x1f\x1f\x9c\x89^\xbc'
p1246
ssS'_usr_local_lib_python2_7_dist-packages_django_core_serializers___init__'
p1247
(dp1248
g6
(dp1249
g86
S'_usr_local_lib_python2_7_dist-packages_django_core_serializers___init__.html'
p1250
sg88
S'/usr/local/lib/python2.7/dist-packages/django/core/serializers/__init__'
p1251
sg90
g13
(g14
g15
NtRp1252
(dp1253
g18
I1
sg19
I0
sg20
I108
sg21
I0
sg22
I0
sg23
I23
sg24
I0
sbssg25
S'\x1a\xef\x93\x89\x1f\xd9=\xb0x\x92t..,*h'
p1254
ssS'_usr_local_lib_python2_7_dist-packages_phonenumbers_data_alt_format_505'
p1255
(dp1256
g6
(dp1257
g8
S'_usr_local_lib_python2_7_dist-packages_phonenumbers_data_alt_format_505.html'
p1258
sg10
S'/usr/local/lib/python2.7/dist-packages/phonenumbers/data/alt_format_505'
p1259
sg12
g13
(g14
g15
NtRp1260
(dp1261
g18
I1
sg19
I0
sg20
I2
sg21
I0
sg22
I0
sg23
I0
sg24
I0
sbssg25
S'\x87\xd1\x8fl{\xb0&OD\xa0nW\xe2I\x85\x11'
p1262
ssS'_usr_local_lib_python2_7_dist-packages_phonenumbers_data_alt_format_506'
p1263
(dp1264
g6
(dp1265
g8
S'_usr_local_lib_python2_7_dist-packages_phonenumbers_data_alt_format_506.html'
p1266
sg10
S'/usr/local/lib/python2.7/dist-packages/phonenumbers/data/alt_format_506'
p1267
sg12
g13
(g14
g15
NtRp1268
(dp1269
g18
I1
sg19
I0
sg20
I2
sg21
I0
sg22
I0
sg23
I0
sg24
I0
sbssg25
S'j\xc1(Q\x15e<\x80Z\xcd]\xc2\x02s\xb2\xd3'
p1270
ssS'_usr_local_lib_python2_7_dist-packages_django_contrib_sessions_apps'
p1271
(dp1272
g6
(dp1273
g8
S'_usr_local_lib_python2_7_dist-packages_django_contrib_sessions_apps.html'
p1274
sg10
S'/usr/local/lib/python2.7/dist-packages/django/contrib/sessions/apps'
p1275
sg12
g13
(g14
g15
NtRp1276
(dp1277
g18
I1
sg19
I0
sg20
I5
sg21
I0
sg22
I0
sg23
I0
sg24
I0
sbssg25
S'\x05\x9d\x1d\x1f5`\xe4\xa6\x9cMS\xb8\x96*r\x04'
p1278
ssS'_usr_local_lib_python2_7_dist-packages_django_contrib_admin_helpers'
p1279
(dp1280
g6
(dp1281
g8
S'_usr_local_lib_python2_7_dist-packages_django_contrib_admin_helpers.html'
p1282
sg10
S'/usr/local/lib/python2.7/dist-packages/django/contrib/admin/helpers'
p1283
sg12
g13
(g14
g15
NtRp1284
(dp1285
g18
I1
sg19
I0
sg20
I225
sg21
I0
sg22
I0
sg23
I161
sg24
I0
sbssg25
S'\xad\x8b0>v\xc2\xb3>\xb0\xf9\xfc\x00f\xfc+c'
p1286
ssS'_usr_local_lib_python2_7_dist-packages_django_contrib_sessions_backends___init__'
p1287
(dp1288
g6
(dp1289
g8
S'_usr_local_lib_python2_7_dist-packages_django_contrib_sessions_backends___init__.html'
p1290
sg10
S'/usr/local/lib/python2.7/dist-packages/django/contrib/sessions/backends/__init__'
p1291
sg12
g13
(g14
g15
NtRp1292
(dp1293
g18
I1
sg19
I0
sg20
I0
sg21
I0
sg22
I0
sg23
I0
sg24
I0
sbssg25
S'\xb0\xc8pN\xaf>\xa0\xbaz\x144\xe0A9\xb8?'
p1294
ssS'_usr_local_lib_python2_7_dist-packages_phonenumber_field_phonenumber'
p1295
(dp1296
g6
(dp1297
g8
S'_usr_local_lib_python2_7_dist-packages_phonenumber_field_phonenumber.html'
p1298
sg10
S'/usr/local/lib/python2.7/dist-packages/phonenumber_field/phonenumber'
p1299
sg12
g13
(g14
g15
NtRp1300
(dp1301
g18
I1
sg19
I0
sg20
I57
sg21
I0
sg22
I0
sg23
I36
sg24
I0
sbssg25
S'I\x8e\xe1\x9c5\xdb\xf2Nze\xde\xdbqq\x11k'
p1302
ssS'_usr_local_lib_python2_7_dist-packages_django_utils_six'
p1303
(dp1304
g6
(dp1305
g8
S'_usr_local_lib_python2_7_dist-packages_django_utils_six.html'
p1306
sg10
S'/usr/local/lib/python2.7/dist-packages/django/utils/six'
p1307
sg12
g13
(g14
g15
NtRp1308
(dp1309
g18
I1
sg19
I0
sg20
I442
sg21
I0
sg22
I0
sg23
I198
sg24
I0
sbssg25
S'\xff\t\xec\x81\xde\x01\xaev\x9di\x02\xab\x9b3\x025'
p1310
ssS'_usr_local_lib_python2_7_dist-packages_django_core_serializers_python'
p1311
(dp1312
g6
(dp1313
g86
S'_usr_local_lib_python2_7_dist-packages_django_core_serializers_python.html'
p1314
sg88
S'/usr/local/lib/python2.7/dist-packages/django/core/serializers/python'
p1315
sg90
g13
(g14
g15
NtRp1316
(dp1317
g18
I1
sg19
I0
sg20
I96
sg21
I0
sg22
I0
sg23
I64
sg24
I0
sbssg25
S"\xd3\xd1pDJ\xcbI\x0c'\xae\xcfH1\xdfzF"
p1318
ssS'_usr_local_lib_python2_7_dist-packages_django_utils_synch'
p1319
(dp1320
g120
(dp1321
g86
S'_usr_local_lib_python2_7_dist-packages_django_utils_synch.html'
p1322
sg88
S'/usr/local/lib/python2.7/dist-packages/django/utils/synch'
p1323
sg90
g13
(g14
g15
NtRp1324
(dp1325
g18
I1
sg19
I0
sg20
I56
sg21
I0
sg22
I0
sg23
I39
sg24
I0
sbssg126
S'q\x15\xbaJ\x98\x10\xc7\x84;t+\x83\x7fX>\xd6'
p1326
ssS'_usr_local_lib_python2_7_dist-packages_crispy_forms_models'
p1327
(dp1328
g6
(dp1329
g8
S'_usr_local_lib_python2_7_dist-packages_crispy_forms_models.html'
p1330
sg10
S'/usr/local/lib/python2.7/dist-packages/crispy_forms/models'
p1331
sg12
g13
(g14
g15
NtRp1332
(dp1333
g18
I1
sg19
I0
sg20
I0
sg21
I0
sg22
I0
sg23
I0
sg24
I0
sbssg25
S'\xb0\xc8pN\xaf>\xa0\xbaz\x144\xe0A9\xb8?'
p1334
ssS'_usr_local_lib_python2_7_dist-packages_django_utils_duration'
p1335
(dp1336
g6
(dp1337
g8
S'_usr_local_lib_python2_7_dist-packages_django_utils_duration.html'
p1338
sg10
S'/usr/local/lib/python2.7/dist-packages/django/utils/duration'
p1339
sg12
g13
(g14
g15
NtRp1340
(dp1341
g18
I1
sg19
I0
sg20
I14
sg21
I0
sg22
I0
sg23
I13
sg24
I0
sbssg25
S'\x01\xbc\xbdK"\xe9/\xb4\xe2\xe8\x04\x86P$>\xc4'
p1342
ssS'_usr_local_lib_python2_7_dist-packages_django_contrib_admin_migrations_0001_initial'
p1343
(dp1344
g120
(dp1345
g86
S'_usr_local_lib_python2_7_dist-packages_django_contrib_admin_migrations_0001_initial.html'
p1346
sg88
S'/usr/local/lib/python2.7/dist-packages/django/contrib/admin/migrations/0001_initial'
p1347
sg90
g13
(g14
g15
NtRp1348
(dp1349
g18
I1
sg19
I0
sg20
I7
sg21
I0
sg22
I0
sg23
I0
sg24
I0
sbssg126
S'\x9f\x95\x98\x9aKZu\x90\xbf\xd4T[\xcc5\xf3\xa3'
p1350
ssS'_usr_local_lib_python2_7_dist-packages_django_core_wsgi'
p1351
(dp1352
g6
(dp1353
g8
S'_usr_local_lib_python2_7_dist-packages_django_core_wsgi.html'
p1354
sg10
S'/usr/local/lib/python2.7/dist-packages/django/core/wsgi'
p1355
sg12
g13
(g14
g15
NtRp1356
(dp1357
g18
I1
sg19
I0
sg20
I5
sg21
I0
sg22
I0
sg23
I2
sg24
I0
sbssg25
S'\xf1tQ4\xb0\x8f=\xf6P\xf8\xaaM\xd0\x17\r9'
p1358
ssS'_usr_local_lib_python2_7_dist-packages_django_contrib_auth_migrations___init__'
p1359
(dp1360
g120
(dp1361
g86
S'_usr_local_lib_python2_7_dist-packages_django_contrib_auth_migrations___init__.html'
p1362
sg88
S'/usr/local/lib/python2.7/dist-packages/django/contrib/auth/migrations/__init__'
p1363
sg90
g13
(g14
g15
NtRp1364
(dp1365
g18
I1
sg19
I0
sg20
I0
sg21
I0
sg22
I0
sg23
I0
sg24
I0
sbssg126
S'\xb0\xc8pN\xaf>\xa0\xbaz\x144\xe0A9\xb8?'
p1366
ssS'_usr_local_lib_python2_7_dist-packages_django_contrib_staticfiles_management___init__'
p1367
(dp1368
g120
(dp1369
g86
S'_usr_local_lib_python2_7_dist-packages_django_contrib_staticfiles_management___init__.html'
p1370
sg88
S'/usr/local/lib/python2.7/dist-packages/django/contrib/staticfiles/management/__init__'
p1371
sg90
g13
(g14
g15
NtRp1372
(dp1373
g18
I1
sg19
I0
sg20
I0
sg21
I0
sg22
I0
sg23
I0
sg24
I0
sbssg126
S'\xb0\xc8pN\xaf>\xa0\xbaz\x144\xe0A9\xb8?'
p1374
ssS'_usr_local_lib_python2_7_dist-packages_django_utils_decorators'
p1375
(dp1376
g6
(dp1377
g8
S'_usr_local_lib_python2_7_dist-packages_django_utils_decorators.html'
p1378
sg10
S'/usr/local/lib/python2.7/dist-packages/django/utils/decorators'
p1379
sg12
g13
(g14
g15
NtRp1380
(dp1381
g18
I1
sg19
I0
sg20
I75
sg21
I0
sg22
I0
sg23
I37
sg24
I0
sbssg25
S'ng\x81\x9dtK\xcb\xaf\x1c\xdb\xb9W7eO\xc8'
p1382
ssS'_usr_local_lib_python2_7_dist-packages_django_utils_dates'
p1383
(dp1384
g6
(dp1385
g8
S'_usr_local_lib_python2_7_dist-packages_django_utils_dates.html'
p1386
sg10
S'/usr/local/lib/python2.7/dist-packages/django/utils/dates'
p1387
sg12
g13
(g14
g15
NtRp1388
(dp1389
g18
I1
sg19
I0
sg20
I9
sg21
I0
sg22
I0
sg23
I0
sg24
I0
sbssg25
S'i\xc6\xb6\xe1ye0}\x15\xda\xc4\x1a)\xda\x8e|'
p1390
ssS'_usr_local_lib_python2_7_dist-packages_django_db_backends_base_schema'
p1391
(dp1392
g6
(dp1393
g86
S'_usr_local_lib_python2_7_dist-packages_django_db_backends_base_schema.html'
p1394
sg88
S'/usr/local/lib/python2.7/dist-packages/django/db/backends/base/schema'
p1395
sg90
g13
(g14
g15
NtRp1396
(dp1397
g18
I1
sg19
I0
sg20
I416
sg21
I0
sg22
I0
sg23
I250
sg24
I0
sbssg25
S'\xcd\xac\x95\x13\x90l\x0e-\x1a\x05\xf4IF>\xf1C'
p1398
ssS'_usr_local_lib_python2_7_dist-packages_django_http_request'
p1399
(dp1400
g6
(dp1401
g8
S'_usr_local_lib_python2_7_dist-packages_django_http_request.html'
p1402
sg10
S'/usr/local/lib/python2.7/dist-packages/django/http/request'
p1403
sg12
g13
(g14
g15
NtRp1404
(dp1405
g18
I1
sg19
I0
sg20
I312
sg21
I0
sg22
I0
sg23
I237
sg24
I0
sbssg25
S'\x15\x1c\xe8\xcc\xf7\xe5\xac\xad|#ys8+\x97v'
p1406
ssS'_usr_local_lib_python2_7_dist-packages_phonenumbers_data_alt_format_62'
p1407
(dp1408
g6
(dp1409
g8
S'_usr_local_lib_python2_7_dist-packages_phonenumbers_data_alt_format_62.html'
p1410
sg10
S'/usr/local/lib/python2.7/dist-packages/phonenumbers/data/alt_format_62'
p1411
sg12
g13
(g14
g15
NtRp1412
(dp1413
g18
I1
sg19
I0
sg20
I2
sg21
I0
sg22
I0
sg23
I0
sg24
I0
sbssg25
S'.\x8aI}/\t\xcf\xcaeH4s\xebZNN'
p1414
ssS'_usr_local_lib_python2_7_dist-packages_django_core_management_commands_createcachetable'
p1415
(dp1416
g120
(dp1417
g86
S'_usr_local_lib_python2_7_dist-packages_django_core_management_commands_createcachetable.html'
p1418
sg88
S'/usr/local/lib/python2.7/dist-packages/django/core/management/commands/createcachetable'
p1419
sg90
g13
(g14
g15
NtRp1420
(dp1421
g18
I1
sg19
I0
sg20
I61
sg21
I0
sg22
I0
sg23
I40
sg24
I0
sbssg126
S'\x1c\xd8%Ap\x1d0\xb7P\xfe\xba=\xadkG\x13'
p1422
ssS'_usr_local_lib_python2_7_dist-packages_django_utils_regex_helper'
p1423
(dp1424
g6
(dp1425
g8
S'_usr_local_lib_python2_7_dist-packages_django_utils_regex_helper.html'
p1426
sg10
S'/usr/local/lib/python2.7/dist-packages/django/utils/regex_helper'
p1427
sg12
g13
(g14
g15
NtRp1428
(dp1429
g18
I1
sg19
I0
sg20
I188
sg21
I0
sg22
I0
sg23
I175
sg24
I0
sbssg25
S'\x7f\xc3\xca\xd0z\xdfHl\xc2\x02A\x94\xcde~\x01'
p1430
ssS'_usr_local_lib_python2_7_dist-packages_django_utils_http'
p1431
(dp1432
g6
(dp1433
g8
S'_usr_local_lib_python2_7_dist-packages_django_utils_http.html'
p1434
sg10
S'/usr/local/lib/python2.7/dist-packages/django/utils/http'
p1435
sg12
g13
(g14
g15
NtRp1436
(dp1437
g18
I1
sg19
I0
sg20
I138
sg21
I0
sg22
I0
sg23
I89
sg24
I0
sbssg25
S'\x8c\xa1\r\xcfv\xcb\xcb$\xe2\x07\xf5\x01JA-\xb5'
p1438
ssS'_usr_local_lib_python2_7_dist-packages_django_core_serializers_json'
p1439
(dp1440
g6
(dp1441
g86
S'_usr_local_lib_python2_7_dist-packages_django_core_serializers_json.html'
p1442
sg88
S'/usr/local/lib/python2.7/dist-packages/django/core/serializers/json'
p1443
sg90
g13
(g14
g15
NtRp1444
(dp1445
g18
I1
sg19
I0
sg20
I79
sg21
I0
sg22
I0
sg23
I38
sg24
I0
sbssg25
S'\xfe\x9a\xd87\x82\xa9\xb8\xd4\x94\xcc\x1b\x8e\tE\xd8\xdc'
p1446
ssS'_usr_local_lib_python2_7_dist-packages_django_contrib_admin_templatetags_admin_urls'
p1447
(dp1448
g6
(dp1449
g8
S'_usr_local_lib_python2_7_dist-packages_django_contrib_admin_templatetags_admin_urls.html'
p1450
sg10
S'/usr/local/lib/python2.7/dist-packages/django/contrib/admin/templatetags/admin_urls'
p1451
sg12
g13
(g14
g15
NtRp1452
(dp1453
g18
I1
sg19
I0
sg20
I38
sg21
I0
sg22
I0
sg23
I28
sg24
I0
sbssg25
S'l\xdc\xf3\xa1\xe2\x7f\xe4{\xcbg\x07\xdaQ\xe6\xecF'
p1454
ssS'_usr_local_lib_python2_7_dist-packages_django_utils_lorem_ipsum'
p1455
(dp1456
g6
(dp1457
g8
S'_usr_local_lib_python2_7_dist-packages_django_utils_lorem_ipsum.html'
p1458
sg10
S'/usr/local/lib/python2.7/dist-packages/django/utils/lorem_ipsum'
p1459
sg12
g13
(g14
g15
NtRp1460
(dp1461
g18
I1
sg19
I0
sg20
I31
sg21
I0
sg22
I0
sg23
I22
sg24
I0
sbssg25
S's\x98\xe5f*\x9a\x19\xfbYi\rP\x9d\xf5\x8bp'
p1462
ssS'_usr_local_lib_python2_7_dist-packages_django_utils_translation_trans_real'
p1463
(dp1464
g6
(dp1465
g86
S'_usr_local_lib_python2_7_dist-packages_django_utils_translation_trans_real.html'
p1466
sg88
S'/usr/local/lib/python2.7/dist-packages/django/utils/translation/trans_real'
p1467
sg90
g13
(g14
g15
NtRp1468
(dp1469
g18
I1
sg19
I0
sg20
I422
sg21
I0
sg22
I0
sg23
I277
sg24
I0
sbssg25
S'\x93\xd3.\t\xa4\x9b\xa1\xd3\x0f\xe6\x19\xf8\x94\x17?#'
p1470
ssS'_usr_local_lib_python2_7_dist-packages_phonenumbers_shortdata___init__'
p1471
(dp1472
g6
(dp1473
g8
S'_usr_local_lib_python2_7_dist-packages_phonenumbers_shortdata___init__.html'
p1474
sg10
S'/usr/local/lib/python2.7/dist-packages/phonenumbers/shortdata/__init__'
p1475
sg12
g13
(g14
g15
NtRp1476
(dp1477
g18
I1
sg19
I0
sg20
I6
sg21
I0
sg22
I0
sg23
I1
sg24
I0
sbssg25
S'+\x88\x91\r\xc6R\x92\x0c\xb8\x87\xd8\xf6\xe6\xb4\x03\xe0'
p1478
ssS'_usr_local_lib_python2_7_dist-packages_django_template_loaders_base'
p1479
(dp1480
g6
(dp1481
g8
S'_usr_local_lib_python2_7_dist-packages_django_template_loaders_base.html'
p1482
sg10
S'/usr/local/lib/python2.7/dist-packages/django/template/loaders/base'
p1483
sg12
g13
(g14
g15
NtRp1484
(dp1485
g18
I1
sg19
I0
sg20
I20
sg21
I0
sg22
I0
sg23
I11
sg24
I0
sbssg25
S'l\xa1\xc5-\x81 l\xdbQ\xf8\xab\xb8\xac\xd3\xd6\x11'
p1486
ssS'_usr_local_lib_python2_7_dist-packages_django_utils_baseconv'
p1487
(dp1488
g6
(dp1489
g8
S'_usr_local_lib_python2_7_dist-packages_django_utils_baseconv.html'
p1490
sg10
S'/usr/local/lib/python2.7/dist-packages/django/utils/baseconv'
p1491
sg12
g13
(g14
g15
NtRp1492
(dp1493
g18
I1
sg19
I0
sg20
I48
sg21
I0
sg22
I0
sg23
I25
sg24
I0
sbssg25
S'\xb9\x9eaD\x8d=\x88\x80N5+D\xfcID\x8e'
p1494
ssS'_usr_local_lib_python2_7_dist-packages_django_utils_deprecation'
p1495
(dp1496
g6
(dp1497
g8
S'_usr_local_lib_python2_7_dist-packages_django_utils_deprecation.html'
p1498
sg10
S'/usr/local/lib/python2.7/dist-packages/django/utils/deprecation'
p1499
sg12
g13
(g14
g15
NtRp1500
(dp1501
g18
I1
sg19
I0
sg20
I39
sg21
I0
sg22
I0
sg23
I5
sg24
I0
sbssg25
S's~\xd2G\x14\xeb\x00j\xe9\x7f\x1fpn\xa2I\xed'
p1502
ssS'_usr_local_lib_python2_7_dist-packages_django_contrib_auth_models'
p1503
(dp1504
g6
(dp1505
g8
S'_usr_local_lib_python2_7_dist-packages_django_contrib_auth_models.html'
p1506
sg10
S'/usr/local/lib/python2.7/dist-packages/django/contrib/auth/models'
p1507
sg12
g13
(g14
g15
NtRp1508
(dp1509
g18
I1
sg19
I0
sg20
I249
sg21
I0
sg22
I0
sg23
I108
sg24
I0
sbssg25
S'^\x86H\xde\x8bQ\xae\xbd+?\xc7T\xc41\x81G'
p1510
ssS'_usr_local_lib_python2_7_dist-packages_django_db_backends_base_introspection'
p1511
(dp1512
g6
(dp1513
g86
S'_usr_local_lib_python2_7_dist-packages_django_db_backends_base_introspection.html'
p1514
sg88
S'/usr/local/lib/python2.7/dist-packages/django/db/backends/base/introspection'
p1515
sg90
g13
(g14
g15
NtRp1516
(dp1517
g18
I1
sg19
I0
sg20
I75
sg21
I0
sg22
I0
sg23
I35
sg24
I0
sbssg25
S'\x8er%\x19\xfb:\xe5\x80}+\xa88\x92\x8b\\\x97'
p1518
ssS'_usr_local_lib_python2_7_dist-packages_phonenumbers_data_alt_format_380'
p1519
(dp1520
g6
(dp1521
g8
S'_usr_local_lib_python2_7_dist-packages_phonenumbers_data_alt_format_380.html'
p1522
sg10
S'/usr/local/lib/python2.7/dist-packages/phonenumbers/data/alt_format_380'
p1523
sg12
g13
(g14
g15
NtRp1524
(dp1525
g18
I1
sg19
I0
sg20
I2
sg21
I0
sg22
I0
sg23
I0
sg24
I0
sbssg25
S'\x90\x0c\x1b\x86\x99\xf9\x14\xa4AJ$\x1a\n\xfc\xe1\xd0'
p1526
ssS'_usr_local_lib_python2_7_dist-packages_phonenumbers_data_alt_format_381'
p1527
(dp1528
g6
(dp1529
g8
S'_usr_local_lib_python2_7_dist-packages_phonenumbers_data_alt_format_381.html'
p1530
sg10
S'/usr/local/lib/python2.7/dist-packages/phonenumbers/data/alt_format_381'
p1531
sg12
g13
(g14
g15
NtRp1532
(dp1533
g18
I1
sg19
I0
sg20
I2
sg21
I0
sg22
I0
sg23
I0
sg24
I0
sbssg25
S'f&\xda\x9cic \x8e*\x88\xe8\xbb\xb3\xf7\xcc\x89'
p1534
ssS'_usr_local_lib_python2_7_dist-packages_phonenumbers_data_alt_format_385'
p1535
(dp1536
g6
(dp1537
g8
S'_usr_local_lib_python2_7_dist-packages_phonenumbers_data_alt_format_385.html'
p1538
sg10
S'/usr/local/lib/python2.7/dist-packages/phonenumbers/data/alt_format_385'
p1539
sg12
g13
(g14
g15
NtRp1540
(dp1541
g18
I1
sg19
I0
sg20
I2
sg21
I0
sg22
I0
sg23
I0
sg24
I0
sbssg25
S'\x9e\xb34\xb6P\xaeD$XD~\xcd\xb7\x8bO\xea'
p1542
ssS'_usr_local_lib_python2_7_dist-packages_django_core_files_move'
p1543
(dp1544
g6
(dp1545
g8
S'_usr_local_lib_python2_7_dist-packages_django_core_files_move.html'
p1546
sg10
S'/usr/local/lib/python2.7/dist-packages/django/core/files/move'
p1547
sg12
g13
(g14
g15
NtRp1548
(dp1549
g18
I1
sg19
I0
sg20
I37
sg21
I0
sg22
I0
sg23
I31
sg24
I0
sbssg25
S'\x91<\xde~\x0f\xdf\xb7\xf9vB\x8dg&|R\x86'
p1550
ssS'_usr_local_lib_python2_7_dist-packages_crispy_forms_base'
p1551
(dp1552
g6
(dp1553
g8
S'_usr_local_lib_python2_7_dist-packages_crispy_forms_base.html'
p1554
sg10
S'/usr/local/lib/python2.7/dist-packages/crispy_forms/base'
p1555
sg12
g13
(g14
g15
NtRp1556
(dp1557
g18
I1
sg19
I0
sg20
I21
sg21
I0
sg22
I0
sg23
I15
sg24
I0
sbssg25
S'0\xc3\x0eU \xec%\x8cS\xcbQ\xdd\xeaE.W'
p1558
ssS'_usr_local_lib_python2_7_dist-packages_phonenumbers_data_alt_format_372'
p1559
(dp1560
g6
(dp1561
g8
S'_usr_local_lib_python2_7_dist-packages_phonenumbers_data_alt_format_372.html'
p1562
sg10
S'/usr/local/lib/python2.7/dist-packages/phonenumbers/data/alt_format_372'
p1563
sg12
g13
(g14
g15
NtRp1564
(dp1565
g18
I1
sg19
I0
sg20
I2
sg21
I0
sg22
I0
sg23
I0
sg24
I0
sbssg25
S'I\xd9\xc2l\x1a\xea\x8bSW\xee\xfa\x878\xa5\x9bg'
p1566
ssS'_usr_local_lib_python2_7_dist-packages_django_contrib_contenttypes_management'
p1567
(dp1568
g6
(dp1569
g86
S'_usr_local_lib_python2_7_dist-packages_django_contrib_contenttypes_management.html'
p1570
sg88
S'/usr/local/lib/python2.7/dist-packages/django/contrib/contenttypes/management'
p1571
sg90
g13
(g14
g15
NtRp1572
(dp1573
g18
I1
sg19
I0
sg20
I37
sg21
I0
sg22
I0
sg23
I17
sg24
I0
sbssg25
S'1\xfa\x8d\x8bV;u\xb1\x80\xcf6\xcf\xe4\x7fLi'
p1574
ssS'_usr_local_lib_python2_7_dist-packages_django_core_paginator'
p1575
(dp1576
g6
(dp1577
g8
S'_usr_local_lib_python2_7_dist-packages_django_core_paginator.html'
p1578
sg10
S'/usr/local/lib/python2.7/dist-packages/django/core/paginator'
p1579
sg12
g13
(g14
g15
NtRp1580
(dp1581
g18
I1
sg19
I0
sg20
I90
sg21
I0
sg22
I0
sg23
I57
sg24
I0
sbssg25
S'\x9b\rH\xc5\xb0\x92P\x1a\xec\x08b(\xa0W\xb6\x0e'
p1582
ssS'_usr_local_lib_python2_7_dist-packages_django_contrib_auth_migrations_0001_initial'
p1583
(dp1584
g120
(dp1585
g86
S'_usr_local_lib_python2_7_dist-packages_django_contrib_auth_migrations_0001_initial.html'
p1586
sg88
S'/usr/local/lib/python2.7/dist-packages/django/contrib/auth/migrations/0001_initial'
p1587
sg90
g13
(g14
g15
NtRp1588
(dp1589
g18
I1
sg19
I0
sg20
I8
sg21
I0
sg22
I0
sg23
I0
sg24
I0
sbssg126
S'\xf7\x14\xedF\x92\xb7\x9fU\n>!o\xe8+_\x17'
p1590
ssS'_usr_local_lib_python2_7_dist-packages_django_core_management_color'
p1591
(dp1592
g6
(dp1593
g86
S'_usr_local_lib_python2_7_dist-packages_django_core_management_color.html'
p1594
sg88
S'/usr/local/lib/python2.7/dist-packages/django/core/management/color'
p1595
sg90
g13
(g14
g15
NtRp1596
(dp1597
g18
I1
sg19
I0
sg20
I29
sg21
I0
sg22
I0
sg23
I2
sg24
I0
sbssg25
S'\x82J\x1d\xc6Y\xfc\x07\x15\\i\x06>W\x14\x02\x17'
p1598
ssS'_usr_local_lib_python2_7_dist-packages_django_core_serializers_xml_serializer'
p1599
(dp1600
g120
(dp1601
g86
S'_usr_local_lib_python2_7_dist-packages_django_core_serializers_xml_serializer.html'
p1602
sg88
S'/usr/local/lib/python2.7/dist-packages/django/core/serializers/xml_serializer'
p1603
sg90
g13
(g14
g15
NtRp1604
(dp1605
g18
I1
sg19
I0
sg20
I212
sg21
I0
sg22
I0
sg23
I165
sg24
I0
sbssg126
S'Z\x03F\x9a\xd2\xe9\x19!\x19Cs\x7f\xd6\xca\xfa\x95'
p1606
ssS'_usr_local_lib_python2_7_dist-packages_phonenumbers_data_alt_format_31'
p1607
(dp1608
g6
(dp1609
g8
S'_usr_local_lib_python2_7_dist-packages_phonenumbers_data_alt_format_31.html'
p1610
sg10
S'/usr/local/lib/python2.7/dist-packages/phonenumbers/data/alt_format_31'
p1611
sg12
g13
(g14
g15
NtRp1612
(dp1613
g18
I1
sg19
I0
sg20
I2
sg21
I0
sg22
I0
sg23
I0
sg24
I0
sbssg25
S'\x058\x9aK\x8a\xdfE*}\xd4\x964I\xd2\x19\xe3'
p1614
ssS'_usr_local_lib_python2_7_dist-packages_phonenumbers_data_alt_format_30'
p1615
(dp1616
g6
(dp1617
g8
S'_usr_local_lib_python2_7_dist-packages_phonenumbers_data_alt_format_30.html'
p1618
sg10
S'/usr/local/lib/python2.7/dist-packages/phonenumbers/data/alt_format_30'
p1619
sg12
g13
(g14
g15
NtRp1620
(dp1621
g18
I1
sg19
I0
sg20
I2
sg21
I0
sg22
I0
sg23
I0
sg24
I0
sbssg25
S'\xb8m\x91\xedB\xa3L\xe6u\x8a\x1d$T\x99\x88g'
p1622
ssS'_usr_local_lib_python2_7_dist-packages_django_http_cookie'
p1623
(dp1624
g6
(dp1625
g8
S'_usr_local_lib_python2_7_dist-packages_django_http_cookie.html'
p1626
sg10
S'/usr/local/lib/python2.7/dist-packages/django/http/cookie'
p1627
sg12
g13
(g14
g15
NtRp1628
(dp1629
g18
I1
sg19
I0
sg20
I62
sg21
I0
sg22
I0
sg23
I40
sg24
I0
sbssg25
S'\x86\x86h:\xc83\xb7\n\x19\xf70\x1a\x9b\x88\xd9\xb3'
p1630
ssS'_usr_local_lib_python2_7_dist-packages_phonenumbers_data_alt_format_34'
p1631
(dp1632
g6
(dp1633
g8
S'_usr_local_lib_python2_7_dist-packages_phonenumbers_data_alt_format_34.html'
p1634
sg10
S'/usr/local/lib/python2.7/dist-packages/phonenumbers/data/alt_format_34'
p1635
sg12
g13
(g14
g15
NtRp1636
(dp1637
g18
I1
sg19
I0
sg20
I2
sg21
I0
sg22
I0
sg23
I0
sg24
I0
sbssg25
S'Lgy"\x00KwYN\x01\xed\xe3\x8eq\x9f\x98'
p1638
ssS'_usr_local_lib_python2_7_dist-packages_phonenumbers_data_alt_format_36'
p1639
(dp1640
g6
(dp1641
g8
S'_usr_local_lib_python2_7_dist-packages_phonenumbers_data_alt_format_36.html'
p1642
sg10
S'/usr/local/lib/python2.7/dist-packages/phonenumbers/data/alt_format_36'
p1643
sg12
g13
(g14
g15
NtRp1644
(dp1645
g18
I1
sg19
I0
sg20
I2
sg21
I0
sg22
I0
sg23
I0
sg24
I0
sbssg25
S'\xfc\x80|+\xeb\xbb\x8a\x98\xc0}\xc3h$\x9c\x9d\xb8'
p1646
ssS'ipcms_forms'
p1647
(dp1648
g6
(dp1649
g8
S'ipcms_forms.html'
p1650
sg10
S'ipcms/forms'
p1651
sg12
g13
(g14
g15
NtRp1652
(dp1653
g18
I1
sg19
I0
sg20
I34
sg21
I0
sg22
I0
sg23
I7
sg24
I0
sbssg25
S'A\xf5\xe3\xe4\x17Nw\xd22w\xbe\xe5\xe5\x15\tm'
p1654
ssS'_usr_local_lib_python2_7_dist-packages_django_utils___init__'
p1655
(dp1656
g6
(dp1657
g8
S'_usr_local_lib_python2_7_dist-packages_django_utils___init__.html'
p1658
sg10
S'/usr/local/lib/python2.7/dist-packages/django/utils/__init__'
p1659
sg12
g13
(g14
g15
NtRp1660
(dp1661
g18
I1
sg19
I0
sg20
I0
sg21
I0
sg22
I0
sg23
I0
sg24
I0
sbssg25
S'\xb0\xc8pN\xaf>\xa0\xbaz\x144\xe0A9\xb8?'
p1662
ssS'_usr_local_lib_python2_7_dist-packages_django_db_transaction'
p1663
(dp1664
g6
(dp1665
g86
S'_usr_local_lib_python2_7_dist-packages_django_db_transaction.html'
p1666
sg88
S'/usr/local/lib/python2.7/dist-packages/django/db/transaction'
p1667
sg90
g13
(g14
g15
NtRp1668
(dp1669
g18
I1
sg19
I0
sg20
I121
sg21
I0
sg22
I0
sg23
I59
sg24
I0
sbssg25
S'\x8b\x80V\xdb\xc9\xf5}\x8b\x8d\xbd\xe7Ot\xc6\xab\xb0'
p1670
ssS'_usr_local_lib_python2_7_dist-packages_django_template_loader'
p1671
(dp1672
g6
(dp1673
g8
S'_usr_local_lib_python2_7_dist-packages_django_template_loader.html'
p1674
sg10
S'/usr/local/lib/python2.7/dist-packages/django/template/loader'
p1675
sg12
g13
(g14
g15
NtRp1676
(dp1677
g18
I1
sg19
I0
sg20
I72
sg21
I0
sg22
I0
sg23
I55
sg24
I0
sbssg25
S'V\x0e\x9f\x90\x13c\x13\xf9\xd6\xcd\xfcn\t\x8a:j'
p1678
ssS'_usr_local_lib_python2_7_dist-packages_django_forms_widgets'
p1679
(dp1680
g6
(dp1681
g8
S'_usr_local_lib_python2_7_dist-packages_django_forms_widgets.html'
p1682
sg10
S'/usr/local/lib/python2.7/dist-packages/django/forms/widgets'
p1683
sg12
g13
(g14
g15
NtRp1684
(dp1685
g18
I1
sg19
I0
sg20
I508
sg21
I0
sg22
I0
sg23
I304
sg24
I0
sbssg25
S'\xcf\xfb\xe1\xca\xbb^\xae\x9b\xa2\x0b@w\x1a`\xb0\xd7'
p1686
ssS'_usr_local_lib_python2_7_dist-packages_django_core_mail___init__'
p1687
(dp1688
g6
(dp1689
g8
S'_usr_local_lib_python2_7_dist-packages_django_core_mail___init__.html'
p1690
sg10
S'/usr/local/lib/python2.7/dist-packages/django/core/mail/__init__'
p1691
sg12
g13
(g14
g15
NtRp1692
(dp1693
g18
I1
sg19
I0
sg20
I33
sg21
I0
sg22
I0
sg23
I22
sg24
I0
sbssg25
S'\x0b\xec~\x01VJ\x10\x14\xe9-\xf8]Y\x16I\xc8'
p1694
ssS'ipcms_models'
p1695
(dp1696
g6
(dp1697
g8
S'ipcms_models.html'
p1698
sg10
S'ipcms/models'
p1699
sg12
g13
(g14
g15
NtRp1700
(dp1701
g18
I1
sg19
I0
sg20
I43
sg21
I0
sg22
I0
sg23
I5
sg24
I0
sbssg25
S"'\xdd_Q\x1f\x1b_?b\x8b\xd4L\xa0\xf9\xec\xe5"
p1702
ssS'_usr_local_lib_python2_7_dist-packages_django_utils_dateformat'
p1703
(dp1704
g6
(dp1705
g8
S'_usr_local_lib_python2_7_dist-packages_django_utils_dateformat.html'
p1706
sg10
S'/usr/local/lib/python2.7/dist-packages/django/utils/dateformat'
p1707
sg12
g13
(g14
g15
NtRp1708
(dp1709
g18
I1
sg19
I0
sg20
I184
sg21
I0
sg22
I0
sg23
I124
sg24
I0
sbssg25
S'l!\xd4\xa7\xb5\xa3\x1a\x9b\xd1\xd7\x86C\x07\xde~\xc6'
p1710
ssS'_usr_local_lib_python2_7_dist-packages_django_contrib_contenttypes_migrations___init__'
p1711
(dp1712
g120
(dp1713
g86
S'_usr_local_lib_python2_7_dist-packages_django_contrib_contenttypes_migrations___init__.html'
p1714
sg88
S'/usr/local/lib/python2.7/dist-packages/django/contrib/contenttypes/migrations/__init__'
p1715
sg90
g13
(g14
g15
NtRp1716
(dp1717
g18
I1
sg19
I0
sg20
I0
sg21
I0
sg22
I0
sg23
I0
sg24
I0
sbssg126
S'\xb0\xc8pN\xaf>\xa0\xbaz\x144\xe0A9\xb8?'
p1718
ssS'_usr_local_lib_python2_7_dist-packages_django_views_static'
p1719
(dp1720
g6
(dp1721
g8
S'_usr_local_lib_python2_7_dist-packages_django_views_static.html'
p1722
sg10
S'/usr/local/lib/python2.7/dist-packages/django/views/static'
p1723
sg12
g13
(g14
g15
NtRp1724
(dp1725
g18
I1
sg19
I0
sg20
I73
sg21
I0
sg22
I0
sg23
I57
sg24
I0
sbssg25
S'S\xecU\xb3\xb9\x91&\xd5X\x0b\xc5!\xe68\x8e\x82'
p1726
ssS'_usr_local_lib_python2_7_dist-packages_django_db_migrations_operations_special'
p1727
(dp1728
g120
(dp1729
g86
S'_usr_local_lib_python2_7_dist-packages_django_db_migrations_operations_special.html'
p1730
sg88
S'/usr/local/lib/python2.7/dist-packages/django/db/migrations/operations/special'
p1731
sg90
g13
(g14
g15
NtRp1732
(dp1733
g18
I1
sg19
I0
sg20
I118
sg21
I0
sg22
I0
sg23
I76
sg24
I0
sbssg126
S'}\xdd\xaeT\xacmkb<\xf9~\xc7c@C\x0c'
p1734
ssS'_usr_local_lib_python2_7_dist-packages_django_conf___init__'
p1735
(dp1736
g6
(dp1737
g8
S'_usr_local_lib_python2_7_dist-packages_django_conf___init__.html'
p1738
sg10
S'/usr/local/lib/python2.7/dist-packages/django/conf/__init__'
p1739
sg12
g13
(g14
g15
NtRp1740
(dp1741
g18
I1
sg19
I0
sg20
I87
sg21
I0
sg22
I0
sg23
I29
sg24
I0
sbssg25
S'\x92\xf9&\xed\x1f\xa2s3TZ\xf6\\f_\xad\xe6'
p1742
ssS'_usr_local_lib_python2_7_dist-packages_django_db_migrations_operations_fields'
p1743
(dp1744
g120
(dp1745
g86
S'_usr_local_lib_python2_7_dist-packages_django_db_migrations_operations_fields.html'
p1746
sg88
S'/usr/local/lib/python2.7/dist-packages/django/db/migrations/operations/fields'
p1747
sg90
g13
(g14
g15
NtRp1748
(dp1749
g18
I1
sg19
I0
sg20
I163
sg21
I0
sg22
I0
sg23
I83
sg24
I0
sbssg126
S'\xb4Vl./\x1a"?2\x97(\x8b\xddg\xe3\xb8'
p1750
ssS'_usr_local_lib_python2_7_dist-packages_django_contrib_contenttypes_migrations_0002_remove_content_type_name'
p1751
(dp1752
g120
(dp1753
g86
S'_usr_local_lib_python2_7_dist-packages_django_contrib_contenttypes_migrations_0002_remove_content_type_name.html'
p1754
sg88
S'/usr/local/lib/python2.7/dist-packages/django/contrib/contenttypes/migrations/0002_remove_content_type_name'
p1755
sg90
g13
(g14
g15
NtRp1756
(dp1757
g18
I1
sg19
I0
sg20
I13
sg21
I0
sg22
I0
sg23
I7
sg24
I0
sbssg126
S'\xeb\xc4\xb9d\x13\xee\xaa\xf4\xaap\xeckG\xd1\xccq'
p1758
ssS'_usr_local_lib_python2_7_dist-packages_django_test_html'
p1759
(dp1760
g6
(dp1761
g8
S'_usr_local_lib_python2_7_dist-packages_django_test_html.html'
p1762
sg10
S'/usr/local/lib/python2.7/dist-packages/django/test/html'
p1763
sg12
g13
(g14
g15
NtRp1764
(dp1765
g18
I1
sg19
I0
sg20
I166
sg21
I0
sg22
I0
sg23
I128
sg24
I0
sbssg25
S'\xfd!\x02\\\x84\xcbY0U\xc9\xc3\xe3<\xa3\x88)'
p1766
ssS'_usr_local_lib_python2_7_dist-packages_django_utils_timezone'
p1767
(dp1768
g6
(dp1769
g86
S'_usr_local_lib_python2_7_dist-packages_django_utils_timezone.html'
p1770
sg88
S'/usr/local/lib/python2.7/dist-packages/django/utils/timezone'
p1771
sg90
g13
(g14
g15
NtRp1772
(dp1773
g18
I1
sg19
I0
sg20
I147
sg21
I0
sg22
I0
sg23
I89
sg24
I0
sbssg25
S'x\x80*@k\xd3\xa6\xebq\xd0e\xcc4\xd4\x9c\xf5'
p1774
ssS'_usr_local_lib_python2_7_dist-packages_django_core_servers_basehttp'
p1775
(dp1776
g6
(dp1777
g8
S'_usr_local_lib_python2_7_dist-packages_django_core_servers_basehttp.html'
p1778
sg10
S'/usr/local/lib/python2.7/dist-packages/django/core/servers/basehttp'
p1779
sg12
g13
(g14
g15
NtRp1780
(dp1781
g18
I1
sg19
I0
sg20
I106
sg21
I0
sg22
I0
sg23
I76
sg24
I0
sbssg25
S'n\x8d .\xde\x89\xc1R\xfc\x0e \xc3L\xdd\xc5\x9a'
p1782
ssS'_usr_local_lib_python2_7_dist-packages_phonenumber_field_formfields'
p1783
(dp1784
g6
(dp1785
g8
S'_usr_local_lib_python2_7_dist-packages_phonenumber_field_formfields.html'
p1786
sg10
S'/usr/local/lib/python2.7/dist-packages/phonenumber_field/formfields'
p1787
sg12
g13
(g14
g15
NtRp1788
(dp1789
g18
I1
sg19
I0
sg20
I14
sg21
I0
sg22
I0
sg23
I4
sg24
I0
sbssg25
S'\xe6\xb0!{t-\x9b\x97\x10\xcc\xa3$X\x18\xb7E'
p1790
ssS'_usr_local_lib_python2_7_dist-packages_phonenumbers_re_util'
p1791
(dp1792
g6
(dp1793
g8
S'_usr_local_lib_python2_7_dist-packages_phonenumbers_re_util.html'
p1794
sg10
S'/usr/local/lib/python2.7/dist-packages/phonenumbers/re_util'
p1795
sg12
g13
(g14
g15
NtRp1796
(dp1797
g18
I1
sg19
I0
sg20
I6
sg21
I4
sg22
I0
sg23
I4
sg24
I0
sbssg25
S'\xef\xa4m\x1b\xa6\xfe\x00\xf9\xd4k\xb7\xf8KF\xca6'
p1798
ssS'_usr_local_lib_python2_7_dist-packages_django_contrib_contenttypes_migrations_0001_initial'
p1799
(dp1800
g120
(dp1801
g86
S'_usr_local_lib_python2_7_dist-packages_django_contrib_contenttypes_migrations_0001_initial.html'
p1802
sg88
S'/usr/local/lib/python2.7/dist-packages/django/contrib/contenttypes/migrations/0001_initial'
p1803
sg90
g13
(g14
g15
NtRp1804
(dp1805
g18
I1
sg19
I0
sg20
I6
sg21
I0
sg22
I0
sg23
I0
sg24
I0
sbssg126
S'\xb6Z\t\xcc\xf6\xb1\xa7\x8fu\x9a|\xe737\x1d\xbf'
p1806
ssS'_usr_local_lib_python2_7_dist-packages_django_core_files_images'
p1807
(dp1808
g6
(dp1809
g8
S'_usr_local_lib_python2_7_dist-packages_django_core_files_images.html'
p1810
sg10
S'/usr/local/lib/python2.7/dist-packages/django/core/files/images'
p1811
sg12
g13
(g14
g15
NtRp1812
(dp1813
g18
I1
sg19
I0
sg20
I43
sg21
I0
sg22
I0
sg23
I34
sg24
I0
sbssg25
S'\xd8\x08F\xdc\x9c\x1b\r\xa2\xb13\xb0\xc1Q\xc6\x90\xce'
p1814
ssS'_usr_local_lib_python2_7_dist-packages_django_db_utils'
p1815
(dp1816
g6
(dp1817
g86
S'_usr_local_lib_python2_7_dist-packages_django_db_utils.html'
p1818
sg88
S'/usr/local/lib/python2.7/dist-packages/django/db/utils'
p1819
sg90
g13
(g14
g15
NtRp1820
(dp1821
g18
I1
sg19
I0
sg20
I217
sg21
I0
sg22
I0
sg23
I79
sg24
I0
sbssg25
S'\xf3\xf3\xa2f\xd2\xc8\x0er\x9bXb\xf4\x83i2T'
p1822
ssS'_usr_local_lib_python2_7_dist-packages_django_core_management_commands_loaddata'
p1823
(dp1824
g120
(dp1825
g86
S'_usr_local_lib_python2_7_dist-packages_django_core_management_commands_loaddata.html'
p1826
sg88
S'/usr/local/lib/python2.7/dist-packages/django/core/management/commands/loaddata'
p1827
sg90
g13
(g14
g15
NtRp1828
(dp1829
g18
I1
sg19
I0
sg20
I181
sg21
I0
sg22
I0
sg23
I70
sg24
I0
sbssg126
S'4\xfd\x05P\xf8\xf7\xed\xb7Pt[<\xf8\xc1\x15\x1c'
p1830
ssS'_usr_local_lib_python2_7_dist-packages_django_db_migrations_operations_base'
p1831
(dp1832
g120
(dp1833
g86
S'_usr_local_lib_python2_7_dist-packages_django_db_migrations_operations_base.html'
p1834
sg88
S'/usr/local/lib/python2.7/dist-packages/django/db/migrations/operations/base'
p1835
sg90
g13
(g14
g15
NtRp1836
(dp1837
g18
I1
sg19
I0
sg20
I31
sg21
I0
sg22
I0
sg23
I9
sg24
I0
sbssg126
S'iu`\xb6\x83{\xe2\xe5l\x9c\x01\xe3\xe0\x1b\x1f\x85'
p1838
ssS'_usr_local_lib_python2_7_dist-packages_django_db_models_sql_datastructures'
p1839
(dp1840
g6
(dp1841
g86
S'_usr_local_lib_python2_7_dist-packages_django_db_models_sql_datastructures.html'
p1842
sg88
S'/usr/local/lib/python2.7/dist-packages/django/db/models/sql/datastructures'
p1843
sg90
g13
(g14
g15
NtRp1844
(dp1845
g18
I1
sg19
I0
sg20
I65
sg21
I0
sg22
I0
sg23
I17
sg24
I0
sbssg25
S'\xb2\xfa\xb4\x13|r\xf8\xb9\xd0w\xb6\x9f\x9e\x9b\xb0\xee'
p1846
ssS'_usr_local_lib_python2_7_dist-packages_django_db_backends_sqlite3___init__'
p1847
(dp1848
g6
(dp1849
g8
S'_usr_local_lib_python2_7_dist-packages_django_db_backends_sqlite3___init__.html'
p1850
sg10
S'/usr/local/lib/python2.7/dist-packages/django/db/backends/sqlite3/__init__'
p1851
sg12
g13
(g14
g15
NtRp1852
(dp1853
g18
I1
sg19
I0
sg20
I0
sg21
I0
sg22
I0
sg23
I0
sg24
I0
sbssg25
S'\xb0\xc8pN\xaf>\xa0\xbaz\x144\xe0A9\xb8?'
p1854
ssS'_usr_local_lib_python2_7_dist-packages_django_contrib_admin_options'
p1855
(dp1856
g6
(dp1857
g8
S'_usr_local_lib_python2_7_dist-packages_django_contrib_admin_options.html'
p1858
sg10
S'/usr/local/lib/python2.7/dist-packages/django/contrib/admin/options'
p1859
sg12
g13
(g14
g15
NtRp1860
(dp1861
g18
I1
sg19
I0
sg20
I993
sg21
I0
sg22
I0
sg23
I776
sg24
I0
sbssg25
S'\xbc^\x8d4S\x0e\x95B\x90k[1\x86yL\xf1'
p1862
ssS'_usr_local_lib_python2_7_dist-packages_django_db_models_constants'
p1863
(dp1864
g6
(dp1865
g8
S'_usr_local_lib_python2_7_dist-packages_django_db_models_constants.html'
p1866
sg10
S'/usr/local/lib/python2.7/dist-packages/django/db/models/constants'
p1867
sg12
g13
(g14
g15
NtRp1868
(dp1869
g18
I1
sg19
I0
sg20
I1
sg21
I0
sg22
I0
sg23
I0
sg24
I0
sbssg25
S'\xb9g\xea"\xa4\xe6,\x8a\xed<\xce\xce_\x8fz\x0f'
p1870
ssS'_usr_local_lib_python2_7_dist-packages_django_db_models_expressions'
p1871
(dp1872
g6
(dp1873
g86
S'_usr_local_lib_python2_7_dist-packages_django_db_models_expressions.html'
p1874
sg88
S'/usr/local/lib/python2.7/dist-packages/django/db/models/expressions'
p1875
sg90
g13
(g14
g15
NtRp1876
(dp1877
g18
I1
sg19
I0
sg20
I577
sg21
I0
sg22
I0
sg23
I356
sg24
I0
sbssg25
S'\xb0\xe4\x8e\xc5\x9f\xf5\x96Jy\x8e\rFP\x9e\xb8\xb0'
p1878
ssS'_usr_local_lib_python2_7_dist-packages_django_contrib_auth_apps'
p1879
(dp1880
g6
(dp1881
g8
S'_usr_local_lib_python2_7_dist-packages_django_contrib_auth_apps.html'
p1882
sg10
S'/usr/local/lib/python2.7/dist-packages/django/contrib/auth/apps'
p1883
sg12
g13
(g14
g15
NtRp1884
(dp1885
g18
I1
sg19
I0
sg20
I12
sg21
I0
sg22
I0
sg23
I0
sg24
I0
sbssg25
S'\xc0\x0b\xde\x0b\x8e\x1e\xdc\x06\xban"\xd9\xb1\x00\x1fK'
p1886
ssS'_usr_local_lib_python2_7_dist-packages_django_contrib_admin_utils'
p1887
(dp1888
g6
(dp1889
g8
S'_usr_local_lib_python2_7_dist-packages_django_contrib_admin_utils.html'
p1890
sg10
S'/usr/local/lib/python2.7/dist-packages/django/contrib/admin/utils'
p1891
sg12
g13
(g14
g15
NtRp1892
(dp1893
g18
I1
sg19
I0
sg20
I298
sg21
I0
sg22
I0
sg23
I240
sg24
I0
sbssg25
S'\xe3\xf7)W4\xf5\xa0\r\xf6OQx(\x06\xd2\xe1'
p1894
ssS'_usr_local_lib_python2_7_dist-packages_django_contrib_admin_filters'
p1895
(dp1896
g6
(dp1897
g8
S'_usr_local_lib_python2_7_dist-packages_django_contrib_admin_filters.html'
p1898
sg10
S'/usr/local/lib/python2.7/dist-packages/django/contrib/admin/filters'
p1899
sg12
g13
(g14
g15
NtRp1900
(dp1901
g18
I1
sg19
I0
sg20
I197
sg21
I0
sg22
I0
sg23
I132
sg24
I0
sbssg25
S'\x07\xc4\x16cW\xb2\xdc?\x06\xe62\xa2\xad\x04y7'
p1902
ssS'_usr_local_lib_python2_7_dist-packages_django_conf_locale___init__'
p1903
(dp1904
g6
(dp1905
g8
S'_usr_local_lib_python2_7_dist-packages_django_conf_locale___init__.html'
p1906
sg10
S'/usr/local/lib/python2.7/dist-packages/django/conf/locale/__init__'
p1907
sg12
g13
(g14
g15
NtRp1908
(dp1909
g18
I1
sg19
I0
sg20
I2
sg21
I0
sg22
I0
sg23
I0
sg24
I0
sbssg25
S'7\xc1\xd1QPC\x97\x8eT\xdb\xfbt\xbby&\x8f'
p1910
ssS'_usr_local_lib_python2_7_dist-packages_phonenumbers_data___init__'
p1911
(dp1912
g6
(dp1913
g8
S'_usr_local_lib_python2_7_dist-packages_phonenumbers_data___init__.html'
p1914
sg10
S'/usr/local/lib/python2.7/dist-packages/phonenumbers/data/__init__'
p1915
sg12
g13
(g14
g15
NtRp1916
(dp1917
g18
I1
sg19
I0
sg20
I54
sg21
I0
sg22
I0
sg23
I1
sg24
I0
sbssg25
S'o\xe8\xdf\\\x93me\xd5\xa9A\xe6b\x18\xf8\xb8y'
p1918
ssS'_usr_local_lib_python2_7_dist-packages_phonenumbers_shortnumberinfo'
p1919
(dp1920
g6
(dp1921
g8
S'_usr_local_lib_python2_7_dist-packages_phonenumbers_shortnumberinfo.html'
p1922
sg10
S'/usr/local/lib/python2.7/dist-packages/phonenumbers/shortnumberinfo'
p1923
sg12
g13
(g14
g15
NtRp1924
(dp1925
g18
I1
sg19
I0
sg20
I141
sg21
I4
sg22
I0
sg23
I113
sg24
I0
sbssg25
S'\x91\xcd\x1b\x08\x8e\xc8)\xf3\r#\x9d\xb4\x8d\xb7\xa6\xeb'
p1926
ssS'_usr_local_lib_python2_7_dist-packages_django_db_models_fields_subclassing'
p1927
(dp1928
g6
(dp1929
g8
S'_usr_local_lib_python2_7_dist-packages_django_db_models_fields_subclassing.html'
p1930
sg10
S'/usr/local/lib/python2.7/dist-packages/django/db/models/fields/subclassing'
p1931
sg12
g13
(g14
g15
NtRp1932
(dp1933
g18
I1
sg19
I0
sg20
I24
sg21
I0
sg22
I0
sg23
I15
sg24
I0
sbssg25
S'\xcc~\xdb\t\x01\x80\x7f\xb54U\x12c6\xa49\xb9'
p1934
ssS'_usr_local_lib_python2_7_dist-packages_phonenumbers_data_alt_format_43'
p1935
(dp1936
g6
(dp1937
g8
S'_usr_local_lib_python2_7_dist-packages_phonenumbers_data_alt_format_43.html'
p1938
sg10
S'/usr/local/lib/python2.7/dist-packages/phonenumbers/data/alt_format_43'
p1939
sg12
g13
(g14
g15
NtRp1940
(dp1941
g18
I1
sg19
I0
sg20
I2
sg21
I0
sg22
I0
sg23
I0
sg24
I0
sbssg25
S'\x0b?\xc0\x90b\x9f\x96\xc9\xee6\xf0R\xbb1\xf72'
p1942
ssS'_usr_local_lib_python2_7_dist-packages_phonenumbers_data_alt_format_44'
p1943
(dp1944
g6
(dp1945
g8
S'_usr_local_lib_python2_7_dist-packages_phonenumbers_data_alt_format_44.html'
p1946
sg10
S'/usr/local/lib/python2.7/dist-packages/phonenumbers/data/alt_format_44'
p1947
sg12
g13
(g14
g15
NtRp1948
(dp1949
g18
I1
sg19
I0
sg20
I2
sg21
I0
sg22
I0
sg23
I0
sg24
I0
sbssg25
S'\xe3\xd2o\xf4\xd0\xdf\x9fp\xbd\xc8[\xd4f\xbfi\xc3'
p1950
ssS'_usr_local_lib_python2_7_dist-packages_django_db_models_sql_where'
p1951
(dp1952
g6
(dp1953
g86
S'_usr_local_lib_python2_7_dist-packages_django_db_models_sql_where.html'
p1954
sg88
S'/usr/local/lib/python2.7/dist-packages/django/db/models/sql/where'
p1955
sg90
g13
(g14
g15
NtRp1956
(dp1957
g18
I1
sg19
I0
sg20
I243
sg21
I0
sg22
I0
sg23
I161
sg24
I0
sbssg25
S'\x01\xa1\xf4r)\x9bUu\n\xedj\x85Q\xc6:w'
p1958
ssS'_usr_local_lib_python2_7_dist-packages_django_db_models_fields_proxy'
p1959
(dp1960
g6
(dp1961
g8
S'_usr_local_lib_python2_7_dist-packages_django_db_models_fields_proxy.html'
p1962
sg10
S'/usr/local/lib/python2.7/dist-packages/django/db/models/fields/proxy'
p1963
sg12
g13
(g14
g15
NtRp1964
(dp1965
g18
I1
sg19
I0
sg20
I10
sg21
I0
sg22
I0
sg23
I6
sg24
I0
sbssg25
S'\xdfIF\x9a8\x04\x87\x8d\x99=\xbek\xbf\xd0\x85\xf5'
p1966
ssS'_usr_local_lib_python2_7_dist-packages_django_db_backends_base_creation'
p1967
(dp1968
g6
(dp1969
g86
S'_usr_local_lib_python2_7_dist-packages_django_db_backends_base_creation.html'
p1970
sg88
S'/usr/local/lib/python2.7/dist-packages/django/db/backends/base/creation'
p1971
sg90
g13
(g14
g15
NtRp1972
(dp1973
g18
I1
sg19
I0
sg20
I285
sg21
I0
sg22
I0
sg23
I199
sg24
I0
sbssg25
S'q\xd4\xf4\x84\x81\xff\xbf\xbaP\xeaB\\\x7f\xc0f\xce'
p1974
ssS'_usr_local_lib_python2_7_dist-packages_django_db_backends_sqlite3_client'
p1975
(dp1976
g6
(dp1977
g8
S'_usr_local_lib_python2_7_dist-packages_django_db_backends_sqlite3_client.html'
p1978
sg10
S'/usr/local/lib/python2.7/dist-packages/django/db/backends/sqlite3/client'
p1979
sg12
g13
(g14
g15
NtRp1980
(dp1981
g18
I1
sg19
I0
sg20
I7
sg21
I0
sg22
I0
sg23
I2
sg24
I0
sbssg25
S'\x85K9\xd7\xa2\x9dT\xcfV\xd0]\x91*(\xd1\xb5'
p1982
ssS'_usr_local_lib_python2_7_dist-packages_django_db_models_query'
p1983
(dp1984
g6
(dp1985
g86
S'_usr_local_lib_python2_7_dist-packages_django_db_models_query.html'
p1986
sg88
S'/usr/local/lib/python2.7/dist-packages/django/db/models/query'
p1987
sg90
g13
(g14
g15
NtRp1988
(dp1989
g18
I1
sg19
I0
sg20
I918
sg21
I0
sg22
I0
sg23
I605
sg24
I0
sbssg25
S'^N\x93tT\xe0\x9c;\xbd\xa0(\xe6\xa2D\x02\xd6'
p1990
ssS'_usr_local_lib_python2_7_dist-packages_django_contrib_auth_hashers'
p1991
(dp1992
g6
(dp1993
g8
S'_usr_local_lib_python2_7_dist-packages_django_contrib_auth_hashers.html'
p1994
sg10
S'/usr/local/lib/python2.7/dist-packages/django/contrib/auth/hashers'
p1995
sg12
g13
(g14
g15
NtRp1996
(dp1997
g18
I1
sg19
I0
sg20
I244
sg21
I0
sg22
I0
sg23
I157
sg24
I0
sbssg25
S'\xe4\xe5\xc9`#\x81_\x19\xe3\x9e\x89\xb5\xa9\xb7\x00\x0c'
p1998
ssS'_usr_local_lib_python2_7_dist-packages_django_db_migrations_state'
p1999
(dp2000
g120
(dp2001
g86
S'_usr_local_lib_python2_7_dist-packages_django_db_migrations_state.html'
p2002
sg88
S'/usr/local/lib/python2.7/dist-packages/django/db/migrations/state'
p2003
sg90
g13
(g14
g15
NtRp2004
(dp2005
g18
I1
sg19
I0
sg20
I310
sg21
I0
sg22
I0
sg23
I83
sg24
I0
sbssg126
S'X\xaf\xa5\x8bI\xc6\xb2y\x8d\xf7\x8f\x02\xa4\xeb/\x01'
p2006
ssS'_usr_local_lib_python2_7_dist-packages_django_core_management___init__'
p2007
(dp2008
g6
(dp2009
g86
S'_usr_local_lib_python2_7_dist-packages_django_core_management___init__.html'
p2010
sg88
S'/usr/local/lib/python2.7/dist-packages/django/core/management/__init__'
p2011
sg90
g13
(g14
g15
NtRp2012
(dp2013
g18
I1
sg19
I0
sg20
I160
sg21
I0
sg22
I0
sg23
I78
sg24
I0
sbssg25
S'\xd1{\xe1\xc0\xa4pE\xcb\xa1\xb2\x13t\xfa\xbeH\xc4'
p2014
ssS'_usr_local_lib_python2_7_dist-packages_django_contrib_sessions_exceptions'
p2015
(dp2016
g6
(dp2017
g8
S'_usr_local_lib_python2_7_dist-packages_django_contrib_sessions_exceptions.html'
p2018
sg10
S'/usr/local/lib/python2.7/dist-packages/django/contrib/sessions/exceptions'
p2019
sg12
g13
(g14
g15
NtRp2020
(dp2021
g18
I1
sg19
I0
sg20
I5
sg21
I0
sg22
I0
sg23
I0
sg24
I0
sbssg25
S'\xb5o\x11z\x9e\x87\xc6\tc\xa3\xf8C\x84\xa9"Y'
p2022
ssS'_usr_local_lib_python2_7_dist-packages_django_views_decorators___init__'
p2023
(dp2024
g6
(dp2025
g8
S'_usr_local_lib_python2_7_dist-packages_django_views_decorators___init__.html'
p2026
sg10
S'/usr/local/lib/python2.7/dist-packages/django/views/decorators/__init__'
p2027
sg12
g13
(g14
g15
NtRp2028
(dp2029
g18
I1
sg19
I0
sg20
I0
sg21
I0
sg22
I0
sg23
I0
sg24
I0
sbssg25
S'\xb0\xc8pN\xaf>\xa0\xbaz\x144\xe0A9\xb8?'
p2030
ssS'_usr_local_lib_python2_7_dist-packages_django_db_migrations_loader'
p2031
(dp2032
g120
(dp2033
g86
S'_usr_local_lib_python2_7_dist-packages_django_db_migrations_loader.html'
p2034
sg88
S'/usr/local/lib/python2.7/dist-packages/django/db/migrations/loader'
p2035
sg90
g13
(g14
g15
NtRp2036
(dp2037
g18
I1
sg19
I0
sg20
I197
sg21
I0
sg22
I0
sg23
I83
sg24
I0
sbssg126
S'$\xdc[\xe3\xd4\xef\xdc\xc2##\xb5\xdb\x83\xf8_r'
p2038
ssS'_usr_local_lib_python2_7_dist-packages_django_core_cache_backends_db'
p2039
(dp2040
g120
(dp2041
g86
S'_usr_local_lib_python2_7_dist-packages_django_core_cache_backends_db.html'
p2042
sg88
S'/usr/local/lib/python2.7/dist-packages/django/core/cache/backends/db'
p2043
sg90
g13
(g14
g15
NtRp2044
(dp2045
g18
I1
sg19
I0
sg20
I133
sg21
I0
sg22
I0
sg23
I110
sg24
I0
sbssg126
S'\xa4\x1dm\x9c\xa7\xcbv\xed\xdaj\x10\xae\x01\xfd\x02\x91'
p2046
ssS'_usr_local_lib_python2_7_dist-packages_django_core_signals'
p2047
(dp2048
g6
(dp2049
g8
S'_usr_local_lib_python2_7_dist-packages_django_core_signals.html'
p2050
sg10
S'/usr/local/lib/python2.7/dist-packages/django/core/signals'
p2051
sg12
g13
(g14
g15
NtRp2052
(dp2053
g18
I1
sg19
I0
sg20
I5
sg21
I0
sg22
I0
sg23
I0
sg24
I0
sbssg25
S'-\xb9\x0flq[h\xa6&=n\xf9]=\xa1j'
p2054
ssS'_usr_local_lib_python2_7_dist-packages_django_views___init__'
p2055
(dp2056
g6
(dp2057
g8
S'_usr_local_lib_python2_7_dist-packages_django_views___init__.html'
p2058
sg10
S'/usr/local/lib/python2.7/dist-packages/django/views/__init__'
p2059
sg12
g13
(g14
g15
NtRp2060
(dp2061
g18
I1
sg19
I0
sg20
I0
sg21
I0
sg22
I0
sg23
I0
sg24
I0
sbssg25
S'\xb0\xc8pN\xaf>\xa0\xbaz\x144\xe0A9\xb8?'
p2062
ssS'_usr_local_lib_python2_7_dist-packages_django_contrib_messages_apps'
p2063
(dp2064
g6
(dp2065
g8
S'_usr_local_lib_python2_7_dist-packages_django_contrib_messages_apps.html'
p2066
sg10
S'/usr/local/lib/python2.7/dist-packages/django/contrib/messages/apps'
p2067
sg12
g13
(g14
g15
NtRp2068
(dp2069
g18
I1
sg19
I0
sg20
I5
sg21
I0
sg22
I0
sg23
I0
sg24
I0
sbssg25
S'\xad?\x90\xbe\x8b\xb8\xb8B}\xf80$\xef\x17\x16,'
p2070
ssS'_usr_local_lib_python2_7_dist-packages_django_utils_datastructures'
p2071
(dp2072
g6
(dp2073
g86
S'_usr_local_lib_python2_7_dist-packages_django_utils_datastructures.html'
p2074
sg88
S'/usr/local/lib/python2.7/dist-packages/django/utils/datastructures'
p2075
sg90
g13
(g14
g15
NtRp2076
(dp2077
g18
I1
sg19
I0
sg20
I319
sg21
I0
sg22
I0
sg23
I189
sg24
I0
sbssg25
S'&K\xaeS\xb2\xc2\xb2\xebI\xc3\xcf\xa1\xfbm\x80r'
p2078
ssS'_usr_local_lib_python2_7_dist-packages_django_contrib_sessions_backends_base'
p2079
(dp2080
g6
(dp2081
g8
S'_usr_local_lib_python2_7_dist-packages_django_contrib_sessions_backends_base.html'
p2082
sg10
S'/usr/local/lib/python2.7/dist-packages/django/contrib/sessions/backends/base'
p2083
sg12
g13
(g14
g15
NtRp2084
(dp2085
g18
I1
sg19
I0
sg20
I184
sg21
I0
sg22
I0
sg23
I124
sg24
I0
sbssg25
S'-\x9f\x8b\x95\xd6\xc5\x0e\x9f^T\x9a7\xd9C\xc9L'
p2086
ssS'_usr_local_lib_python2_7_dist-packages_phonenumbers_util'
p2087
(dp2088
g6
(dp2089
g8
S'_usr_local_lib_python2_7_dist-packages_phonenumbers_util.html'
p2090
sg10
S'/usr/local/lib/python2.7/dist-packages/phonenumbers/util'
p2091
sg12
g13
(g14
g15
NtRp2092
(dp2093
g18
I1
sg19
I0
sg20
I59
sg21
I46
sg22
I0
sg23
I26
sg24
I0
sbssg25
S'\x81\xac\xa0l\xe2\xb1|}\xb0\xe8I\x8c\x90%\xe1u'
p2094
ssS'_usr_local_lib_python2_7_dist-packages_django_core_checks_compatibility___init__'
p2095
(dp2096
g6
(dp2097
g8
S'_usr_local_lib_python2_7_dist-packages_django_core_checks_compatibility___init__.html'
p2098
sg10
S'/usr/local/lib/python2.7/dist-packages/django/core/checks/compatibility/__init__'
p2099
sg12
g13
(g14
g15
NtRp2100
(dp2101
g18
I1
sg19
I0
sg20
I0
sg21
I0
sg22
I0
sg23
I0
sg24
I0
sbssg25
S'\xb0\xc8pN\xaf>\xa0\xbaz\x144\xe0A9\xb8?'
p2102
ssS'_usr_local_lib_python2_7_dist-packages_django_core_serializers_pyyaml'
p2103
(dp2104
g120
(dp2105
g86
S'_usr_local_lib_python2_7_dist-packages_django_core_serializers_pyyaml.html'
p2106
sg88
S'/usr/local/lib/python2.7/dist-packages/django/core/serializers/pyyaml'
p2107
sg90
g13
(g14
g15
NtRp2108
(dp2109
g18
I1
sg19
I0
sg20
I40
sg21
I0
sg22
I0
sg23
I36
sg24
I0
sbssg126
S'\xc5\xc9\xb8q\xab\xbd\x9ek\xd1\xbc\xc2\x90\x081<\xc8'
p2110
ssS'ipcms_tests'
p2111
(dp2112
g120
(dp2113
g86
S'ipcms_tests.html'
p2114
sg88
S'ipcms/tests'
p2115
sg90
g13
(g14
g15
NtRp2116
(dp2117
g18
I1
sg19
I0
sg20
I12
sg21
I0
sg22
I0
sg23
I1
sg24
I0
sbssg126
S'\xd3\x84\xae`\xfaP\x8c&q%\x9d\x80\xf9\x94\xa8\xbe'
p2118
ssS'_usr_local_lib_python2_7_dist-packages_django_db_migrations_optimizer'
p2119
(dp2120
g120
(dp2121
g86
S'_usr_local_lib_python2_7_dist-packages_django_db_migrations_optimizer.html'
p2122
sg88
S'/usr/local/lib/python2.7/dist-packages/django/db/migrations/optimizer'
p2123
sg90
g13
(g14
g15
NtRp2124
(dp2125
g18
I1
sg19
I0
sg20
I99
sg21
I0
sg22
I0
sg23
I75
sg24
I0
sbssg126
S'\xc0\xc35U\x81\x02\xcfW\x8f\xd4\xeab\xca\xf0\xc3c'
p2126
ssS'_usr_local_lib_python2_7_dist-packages_django_contrib_sessions___init__'
p2127
(dp2128
g6
(dp2129
g8
S'_usr_local_lib_python2_7_dist-packages_django_contrib_sessions___init__.html'
p2130
sg10
S'/usr/local/lib/python2.7/dist-packages/django/contrib/sessions/__init__'
p2131
sg12
g13
(g14
g15
NtRp2132
(dp2133
g18
I1
sg19
I0
sg20
I1
sg21
I0
sg22
I0
sg23
I0
sg24
I0
sbssg25
S'\x99j\xbb\x1d\xaf\xb9%M\xb7w\x0c\xdc\xd5\xec\xfe\xcc'
p2134
ssS'_usr_local_lib_python2_7_dist-packages_django_http_response'
p2135
(dp2136
g6
(dp2137
g8
S'_usr_local_lib_python2_7_dist-packages_django_http_response.html'
p2138
sg10
S'/usr/local/lib/python2.7/dist-packages/django/http/response'
p2139
sg12
g13
(g14
g15
NtRp2140
(dp2141
g18
I1
sg19
I0
sg20
I259
sg21
I0
sg22
I0
sg23
I155
sg24
I0
sbssg25
S'fM\xe2Wt0\x8b\xeb\x9e,\x18\xb1N\xb4\xd3\xd7'
p2142
ssS'_usr_local_lib_python2_7_dist-packages_django_db_models___init__'
p2143
(dp2144
g6
(dp2145
g8
S'_usr_local_lib_python2_7_dist-packages_django_db_models___init__.html'
p2146
sg10
S'/usr/local/lib/python2.7/dist-packages/django/db/models/__init__'
p2147
sg12
g13
(g14
g15
NtRp2148
(dp2149
g18
I1
sg19
I0
sg20
I35
sg21
I0
sg22
I0
sg23
I8
sg24
I0
sbssg25
S'x\xc7\x8f\xf1\xd0\xd5\x88x\xefB\x0e"\x17xf\r'
p2150
ssS'_usr_local_lib_python2_7_dist-packages_django_contrib_auth_management___init__'
p2151
(dp2152
g6
(dp2153
g86
S'_usr_local_lib_python2_7_dist-packages_django_contrib_auth_management___init__.html'
p2154
sg88
S'/usr/local/lib/python2.7/dist-packages/django/contrib/auth/management/__init__'
p2155
sg90
g13
(g14
g15
NtRp2156
(dp2157
g18
I1
sg19
I0
sg20
I88
sg21
I0
sg22
I0
sg23
I41
sg24
I0
sbssg25
S'n\xb1|G\xcc%$\x19w\x98b\x16(U\x95\x96'
p2158
ssS'_usr_local_lib_python2_7_dist-packages_django_db___init__'
p2159
(dp2160
g6
(dp2161
g8
S'_usr_local_lib_python2_7_dist-packages_django_db___init__.html'
p2162
sg10
S'/usr/local/lib/python2.7/dist-packages/django/db/__init__'
p2163
sg12
g13
(g14
g15
NtRp2164
(dp2165
g18
I1
sg19
I0
sg20
I26
sg21
I0
sg22
I0
sg23
I8
sg24
I0
sbssg25
S'\xe2\xfc\xaa\xe5\xaa}\xb5f\x07\xd78\x07\xca(\n\x11'
p2166
ssS'_usr_local_lib_python2_7_dist-packages_phonenumber_field_modelfields'
p2167
(dp2168
g6
(dp2169
g86
S'_usr_local_lib_python2_7_dist-packages_phonenumber_field_modelfields.html'
p2170
sg88
S'/usr/local/lib/python2.7/dist-packages/phonenumber_field/modelfields'
p2171
sg90
g13
(g14
g15
NtRp2172
(dp2173
g18
I1
sg19
I0
sg20
I48
sg21
I0
sg22
I0
sg23
I14
sg24
I0
sbssg25
S'\x0cs\xb8{\xde\x0f\x1f+\x8f\xc2\xefB\xa0\xea{\x89'
p2174
ssS'_usr_local_lib_python2_7_dist-packages_phonenumbers_phonenumbermatcher'
p2175
(dp2176
g6
(dp2177
g8
S'_usr_local_lib_python2_7_dist-packages_phonenumbers_phonenumbermatcher.html'
p2178
sg10
S'/usr/local/lib/python2.7/dist-packages/phonenumbers/phonenumbermatcher'
p2179
sg12
g13
(g14
g15
NtRp2180
(dp2181
g18
I1
sg19
I0
sg20
I299
sg21
I8
sg22
I0
sg23
I219
sg24
I0
sbssg25
S'\xe8\xd6:\x85\x07\xe9a\xba\xcb\xd8!Bgc\x94\x06'
p2182
ssS'_usr_local_lib_python2_7_dist-packages_django_contrib_admin_apps'
p2183
(dp2184
g6
(dp2185
g8
S'_usr_local_lib_python2_7_dist-packages_django_contrib_admin_apps.html'
p2186
sg10
S'/usr/local/lib/python2.7/dist-packages/django/contrib/admin/apps'
p2187
sg12
g13
(g14
g15
NtRp2188
(dp2189
g18
I1
sg19
I0
sg20
I13
sg21
I0
sg22
I0
sg23
I0
sg24
I0
sbssg25
S'\x1b\xd2\xb4\x8d\xe4\xa2jUAU\xd8\xd5\xf5B\x86\xe7'
p2190
ssS'_usr_local_lib_python2_7_dist-packages_django_contrib_auth_admin'
p2191
(dp2192
g6
(dp2193
g8
S'_usr_local_lib_python2_7_dist-packages_django_contrib_auth_admin.html'
p2194
sg10
S'/usr/local/lib/python2.7/dist-packages/django/contrib/auth/admin'
p2195
sg12
g13
(g14
g15
NtRp2196
(dp2197
g18
I1
sg19
I0
sg20
I102
sg21
I0
sg22
I0
sg23
I51
sg24
I0
sbssg25
S'\xac\xb9QM\xcdR\x8e\x01\xf3\xb9A\x97\x99\xe1\xab\x81'
p2198
ssS'_usr_local_lib_python2_7_dist-packages_django_contrib_admin_widgets'
p2199
(dp2200
g6
(dp2201
g8
S'_usr_local_lib_python2_7_dist-packages_django_contrib_admin_widgets.html'
p2202
sg10
S'/usr/local/lib/python2.7/dist-packages/django/contrib/admin/widgets'
p2203
sg12
g13
(g14
g15
NtRp2204
(dp2205
g18
I1
sg19
I0
sg20
I238
sg21
I0
sg22
I0
sg23
I164
sg24
I0
sbssg25
S'\xca\x7fCL\xd0\x0eW\xc8$>A\xd0TM\xbb$'
p2206
ssS'_usr_local_lib_python2_7_dist-packages_django_db_backends_signals'
p2207
(dp2208
g6
(dp2209
g8
S'_usr_local_lib_python2_7_dist-packages_django_db_backends_signals.html'
p2210
sg10
S'/usr/local/lib/python2.7/dist-packages/django/db/backends/signals'
p2211
sg12
g13
(g14
g15
NtRp2212
(dp2213
g18
I1
sg19
I0
sg20
I2
sg21
I0
sg22
I0
sg23
I0
sg24
I0
sbssg25
S'\xac\xe8\xc0\xe9\x8a\xd9d\xcc\x03\xc1\x89\xd4\xde\xa8x<'
p2214
ssS'_usr_local_lib_python2_7_dist-packages_django_db_backends_base_validation'
p2215
(dp2216
g6
(dp2217
g8
S'_usr_local_lib_python2_7_dist-packages_django_db_backends_base_validation.html'
p2218
sg10
S'/usr/local/lib/python2.7/dist-packages/django/db/backends/base/validation'
p2219
sg12
g13
(g14
g15
NtRp2220
(dp2221
g18
I1
sg19
I0
sg20
I14
sg21
I0
sg22
I0
sg23
I8
sg24
I0
sbssg25
S'\t\xe8YH}\xf4\x1b*\xb0$\x9dJ\xcb\xe84\x99'
p2222
ssS'_usr_local_lib_python2_7_dist-packages_django_core_files_uploadedfile'
p2223
(dp2224
g6
(dp2225
g8
S'_usr_local_lib_python2_7_dist-packages_django_core_files_uploadedfile.html'
p2226
sg10
S'/usr/local/lib/python2.7/dist-packages/django/core/files/uploadedfile'
p2227
sg12
g13
(g14
g15
NtRp2228
(dp2229
g18
I1
sg19
I0
sg20
I60
sg21
I0
sg22
I0
sg23
I33
sg24
I0
sbssg25
S'\xb9M\x13B8\xba|\xb6B/\xd1\r\xe5y\x1b\xfe'
p2230
ssS'_usr_local_lib_python2_7_dist-packages_django_utils_itercompat'
p2231
(dp2232
g6
(dp2233
g8
S'_usr_local_lib_python2_7_dist-packages_django_utils_itercompat.html'
p2234
sg10
S'/usr/local/lib/python2.7/dist-packages/django/utils/itercompat'
p2235
sg12
g13
(g14
g15
NtRp2236
(dp2237
g18
I1
sg19
I0
sg20
I6
sg21
I0
sg22
I0
sg23
I5
sg24
I0
sbssg25
S'\xf2\x86\x14\xb9\xe2}\xd6\xa3\x9ar\xdb\x04\xdb\xcf\x11\xcb'
p2238
ssS'_usr_local_lib_python2_7_dist-packages_django_db_models_lookups'
p2239
(dp2240
g6
(dp2241
g86
S'_usr_local_lib_python2_7_dist-packages_django_db_models_lookups.html'
p2242
sg88
S'/usr/local/lib/python2.7/dist-packages/django/db/models/lookups'
p2243
sg90
g13
(g14
g15
NtRp2244
(dp2245
g18
I1
sg19
I0
sg20
I337
sg21
I0
sg22
I0
sg23
I143
sg24
I0
sbssg25
S'\xe9\x86\xddTQ\xf6\xfcg\x7fU\x7f\x0c5\xd5\xf94'
p2246
ssS'_usr_local_lib_python2_7_dist-packages_django_contrib_auth_checks'
p2247
(dp2248
g6
(dp2249
g8
S'_usr_local_lib_python2_7_dist-packages_django_contrib_auth_checks.html'
p2250
sg10
S'/usr/local/lib/python2.7/dist-packages/django/contrib/auth/checks'
p2251
sg12
g13
(g14
g15
NtRp2252
(dp2253
g18
I1
sg19
I0
sg20
I16
sg21
I0
sg22
I0
sg23
I11
sg24
I0
sbssg25
S'\xea\xe8\xef\xb9\xe1x#\xfft~\\\x17\xcf\xc7\x80U'
p2254
ssS'_usr_local_lib_python2_7_dist-packages_crispy_forms___init__'
p2255
(dp2256
g6
(dp2257
g8
S'_usr_local_lib_python2_7_dist-packages_crispy_forms___init__.html'
p2258
sg10
S'/usr/local/lib/python2.7/dist-packages/crispy_forms/__init__'
p2259
sg12
g13
(g14
g15
NtRp2260
(dp2261
g18
I1
sg19
I0
sg20
I1
sg21
I0
sg22
I0
sg23
I0
sg24
I0
sbssg25
S'\xde;\x1f\xc6(]&\x99\xd4\tr\xef\xa2P\x19\xeb'
p2262
ssS'_usr_local_lib_python2_7_dist-packages_django_core_management_commands_flush'
p2263
(dp2264
g6
(dp2265
g86
S'_usr_local_lib_python2_7_dist-packages_django_core_management_commands_flush.html'
p2266
sg88
S'/usr/local/lib/python2.7/dist-packages/django/core/management/commands/flush'
p2267
sg90
g13
(g14
g15
NtRp2268
(dp2269
g18
I1
sg19
I0
sg20
I59
sg21
I0
sg22
I0
sg23
I10
sg24
I0
sbssg25
S'H\x7f\x81\xfc\xea\x97\xb3\xaa\x00\x16\x1e\xfd`\x9b\x1as'
p2270
ssS'_usr_local_lib_python2_7_dist-packages_django_core_checks_compatibility_django_1_8_0'
p2271
(dp2272
g6
(dp2273
g8
S'_usr_local_lib_python2_7_dist-packages_django_core_checks_compatibility_django_1_8_0.html'
p2274
sg10
S'/usr/local/lib/python2.7/dist-packages/django/core/checks/compatibility/django_1_8_0'
p2275
sg12
g13
(g14
g15
NtRp2276
(dp2277
g18
I1
sg19
I0
sg20
I10
sg21
I0
sg22
I0
sg23
I6
sg24
I0
sbssg25
S'\xad\x19\xcf~+\xa9\r.\xc1\rK\xff\xf6\x8f\xe6I'
p2278
ssS'_usr_local_lib_python2_7_dist-packages_django_db_backends___init__'
p2279
(dp2280
g6
(dp2281
g8
S'_usr_local_lib_python2_7_dist-packages_django_db_backends___init__.html'
p2282
sg10
S'/usr/local/lib/python2.7/dist-packages/django/db/backends/__init__'
p2283
sg12
g13
(g14
g15
NtRp2284
(dp2285
g18
I1
sg19
I0
sg20
I0
sg21
I0
sg22
I0
sg23
I0
sg24
I0
sbssg25
S'\xb0\xc8pN\xaf>\xa0\xbaz\x144\xe0A9\xb8?'
p2286
ssS'_usr_local_lib_python2_7_dist-packages_django_middleware_cache'
p2287
(dp2288
g6
(dp2289
g8
S'_usr_local_lib_python2_7_dist-packages_django_middleware_cache.html'
p2290
sg10
S'/usr/local/lib/python2.7/dist-packages/django/middleware/cache'
p2291
sg12
g13
(g14
g15
NtRp2292
(dp2293
g18
I1
sg19
I0
sg20
I72
sg21
I0
sg22
I0
sg23
I60
sg24
I0
sbssg25
S'qp\x13c\xa8\x04e~\xf8]\x05\xf7\x04\xe9"\x83'
p2294
ssS'_usr_local_lib_python2_7_dist-packages_django_contrib_messages_constants'
p2295
(dp2296
g6
(dp2297
g8
S'_usr_local_lib_python2_7_dist-packages_django_contrib_messages_constants.html'
p2298
sg10
S'/usr/local/lib/python2.7/dist-packages/django/contrib/messages/constants'
p2299
sg12
g13
(g14
g15
NtRp2300
(dp2301
g18
I1
sg19
I0
sg20
I7
sg21
I0
sg22
I0
sg23
I0
sg24
I0
sbssg25
S'_ \x8bb\xed|\xfe\xd5\xbe\x06\xbb\xa4\xfd\xc5X\xb9'
p2302
ssS'_usr_local_lib_python2_7_dist-packages_django_db_models_manager'
p2303
(dp2304
g6
(dp2305
g86
S'_usr_local_lib_python2_7_dist-packages_django_db_models_manager.html'
p2306
sg88
S'/usr/local/lib/python2.7/dist-packages/django/db/models/manager'
p2307
sg90
g13
(g14
g15
NtRp2308
(dp2309
g18
I1
sg19
I0
sg20
I151
sg21
I0
sg22
I0
sg23
I21
sg24
I0
sbssg25
S'2\xac\xd4\x98\x9f\x89\x19y\xcdw4u\xcd\x81\x94\xe4'
p2310
ssS'_usr_local_lib_python2_7_dist-packages_phonenumbers_data_alt_format_373'
p2311
(dp2312
g6
(dp2313
g8
S'_usr_local_lib_python2_7_dist-packages_phonenumbers_data_alt_format_373.html'
p2314
sg10
S'/usr/local/lib/python2.7/dist-packages/phonenumbers/data/alt_format_373'
p2315
sg12
g13
(g14
g15
NtRp2316
(dp2317
g18
I1
sg19
I0
sg20
I2
sg21
I0
sg22
I0
sg23
I0
sg24
I0
sbssg25
S'\xd4\x8c\xdb\xa0\xb8\xb7\x99x\x1a\x00\xc2t\x9ci\xba\x9f'
p2318
ssS'_usr_local_lib_python2_7_dist-packages_django_core_files_storage'
p2319
(dp2320
g6
(dp2321
g8
S'_usr_local_lib_python2_7_dist-packages_django_core_files_storage.html'
p2322
sg10
S'/usr/local/lib/python2.7/dist-packages/django/core/files/storage'
p2323
sg12
g13
(g14
g15
NtRp2324
(dp2325
g18
I1
sg19
I0
sg20
I166
sg21
I0
sg22
I0
sg23
I115
sg24
I0
sbssg25
S'\xb6\x184\xea.\xfd\x9d\x8e\x83t\xea\xd8\x80\x7f\xeej'
p2326
ssS'_usr_local_lib_python2_7_dist-packages_django_utils_ipv6'
p2327
(dp2328
g6
(dp2329
g8
S'_usr_local_lib_python2_7_dist-packages_django_utils_ipv6.html'
p2330
sg10
S'/usr/local/lib/python2.7/dist-packages/django/utils/ipv6'
p2331
sg12
g13
(g14
g15
NtRp2332
(dp2333
g18
I1
sg19
I0
sg20
I108
sg21
I0
sg22
I0
sg23
I99
sg24
I0
sbssg25
S'\x8b>\xae\xac\xf1N\xecI\xbe\x00J\xea\xdf\xb1MZ'
p2334
ssS'_usr_local_lib_python2_7_dist-packages_phonenumbers_phonemetadata'
p2335
(dp2336
g6
(dp2337
g8
S'_usr_local_lib_python2_7_dist-packages_phonenumbers_phonemetadata.html'
p2338
sg10
S'/usr/local/lib/python2.7/dist-packages/phonenumbers/phonemetadata'
p2339
sg12
g13
(g14
g15
NtRp2340
(dp2341
g18
I1
sg19
I0
sg20
I243
sg21
I3
sg22
I0
sg23
I154
sg24
I0
sbssg25
S'\x96\xe0\xcb)\xdf3\xe1\x89l\xea\x15~\x16\xb8\x06\x85'
p2342
ssS'_usr_local_lib_python2_7_dist-packages_django_db_models_sql_compiler'
p2343
(dp2344
g120
(dp2345
g86
S'_usr_local_lib_python2_7_dist-packages_django_db_models_sql_compiler.html'
p2346
sg88
S'/usr/local/lib/python2.7/dist-packages/django/db/models/sql/compiler'
p2347
sg90
g13
(g14
g15
NtRp2348
(dp2349
g18
I1
sg19
I0
sg20
I647
sg21
I0
sg22
I0
sg23
I345
sg24
I0
sbssg126
S'\xa1\xb51\xe4V\x14\xfd\xc1\xeb=\xd7b\xb5$:{'
p2350
ssS'_usr_local_lib_python2_7_dist-packages_django_template_engine'
p2351
(dp2352
g6
(dp2353
g8
S'_usr_local_lib_python2_7_dist-packages_django_template_engine.html'
p2354
sg10
S'/usr/local/lib/python2.7/dist-packages/django/template/engine'
p2355
sg12
g13
(g14
g15
NtRp2356
(dp2357
g18
I1
sg19
I0
sg20
I144
sg21
I0
sg22
I0
sg23
I100
sg24
I0
sbssg25
S'\xc4\xdc\xea\xe6+\xb0[\xf4K\x1a\xaeq\xd8\xa0\xc0\xdd'
p2358
ssS'_usr_local_lib_python2_7_dist-packages_django_db_models_sql_subqueries'
p2359
(dp2360
g6
(dp2361
g86
S'_usr_local_lib_python2_7_dist-packages_django_db_models_sql_subqueries.html'
p2362
sg88
S'/usr/local/lib/python2.7/dist-packages/django/db/models/sql/subqueries'
p2363
sg90
g13
(g14
g15
NtRp2364
(dp2365
g18
I1
sg19
I0
sg20
I104
sg21
I0
sg22
I0
sg23
I68
sg24
I0
sbssg25
S'\x1ei\xa30\x13\x96\x82e\xc1\xa9\xc4z\xe8+\x1c\xdb'
p2366
ssS'_usr_local_lib_python2_7_dist-packages_django_utils_encoding'
p2367
(dp2368
g6
(dp2369
g86
S'_usr_local_lib_python2_7_dist-packages_django_utils_encoding.html'
p2370
sg88
S'/usr/local/lib/python2.7/dist-packages/django/utils/encoding'
p2371
sg90
g13
(g14
g15
NtRp2372
(dp2373
g18
I1
sg19
I0
sg20
I116
sg21
I0
sg22
I0
sg23
I52
sg24
I0
sbssg25
S"\xc9)\x0c*\x9fm\x9c\xbe\xbe(\xc7'\xab\xcak\xf8"
p2374
ssS'_usr_local_lib_python2_7_dist-packages_django_core_mail_utils'
p2375
(dp2376
g6
(dp2377
g8
S'_usr_local_lib_python2_7_dist-packages_django_core_mail_utils.html'
p2378
sg10
S'/usr/local/lib/python2.7/dist-packages/django/core/mail/utils'
p2379
sg12
g13
(g14
g15
NtRp2380
(dp2381
g18
I1
sg19
I0
sg20
I9
sg21
I0
sg22
I0
sg23
I4
sg24
I0
sbssg25
S'q\x8f\x86\xa8\x10\xa1\x04\x98^\x0e\xe8\x93\xb7X\xaan'
p2382
ssS'_usr_local_lib_python2_7_dist-packages_django_core_serializers_base'
p2383
(dp2384
g6
(dp2385
g86
S'_usr_local_lib_python2_7_dist-packages_django_core_serializers_base.html'
p2386
sg88
S'/usr/local/lib/python2.7/dist-packages/django/core/serializers/base'
p2387
sg90
g13
(g14
g15
NtRp2388
(dp2389
g18
I1
sg19
I0
sg20
I90
sg21
I0
sg22
I0
sg23
I33
sg24
I0
sbssg25
S"'\xba\n\xf9\x0c\xe7?\xaaD\xff\xb7M\xc2\xbf\x19\xb4"
p2390
ssS'_usr_local_lib_python2_7_dist-packages_django_contrib_messages___init__'
p2391
(dp2392
g6
(dp2393
g8
S'_usr_local_lib_python2_7_dist-packages_django_contrib_messages___init__.html'
p2394
sg10
S'/usr/local/lib/python2.7/dist-packages/django/contrib/messages/__init__'
p2395
sg12
g13
(g14
g15
NtRp2396
(dp2397
g18
I1
sg19
I0
sg20
I3
sg21
I0
sg22
I0
sg23
I0
sg24
I0
sbssg25
S'=\xbb\xec\x1b\xf4\xe6$\xf7Z\x0b\xa8\xdf\x11\x1c\xd3\xfa'
p2398
ssS'_usr_local_lib_python2_7_dist-packages_django_test_utils'
p2399
(dp2400
g6
(dp2401
g86
S'_usr_local_lib_python2_7_dist-packages_django_test_utils.html'
p2402
sg88
S'/usr/local/lib/python2.7/dist-packages/django/test/utils'
p2403
sg90
g13
(g14
g15
NtRp2404
(dp2405
g18
I1
sg19
I0
sg20
I334
sg21
I0
sg22
I0
sg23
I231
sg24
I0
sbssg25
S'|\xc3\xc2cR\xf2f\xf5\xd5\xdd\xa9J\xc2\xacf\xc2'
p2406
ssS'_usr_local_lib_python2_7_dist-packages_phonenumbers_data_alt_format_971'
p2407
(dp2408
g6
(dp2409
g8
S'_usr_local_lib_python2_7_dist-packages_phonenumbers_data_alt_format_971.html'
p2410
sg10
S'/usr/local/lib/python2.7/dist-packages/phonenumbers/data/alt_format_971'
p2411
sg12
g13
(g14
g15
NtRp2412
(dp2413
g18
I1
sg19
I0
sg20
I2
sg21
I0
sg22
I0
sg23
I0
sg24
I0
sbssg25
S'U\x990G\xcdV\x1cK\xdc(\xf6\xac\x84\x03A\xc4'
p2414
ssS'_usr_local_lib_python2_7_dist-packages_phonenumbers_data_alt_format_972'
p2415
(dp2416
g6
(dp2417
g8
S'_usr_local_lib_python2_7_dist-packages_phonenumbers_data_alt_format_972.html'
p2418
sg10
S'/usr/local/lib/python2.7/dist-packages/phonenumbers/data/alt_format_972'
p2419
sg12
g13
(g14
g15
NtRp2420
(dp2421
g18
I1
sg19
I0
sg20
I2
sg21
I0
sg22
I0
sg23
I0
sg24
I0
sbssg25
S'\x82j\xe4\xd3\x9b\xfbn+-\xd6\xc0\x8a\xcf\xb4\xf6i'
p2422
ssS'_usr_local_lib_python2_7_dist-packages_django_contrib_auth_migrations_0006_require_contenttypes_0002'
p2423
(dp2424
g120
(dp2425
g86
S'_usr_local_lib_python2_7_dist-packages_django_contrib_auth_migrations_0006_require_contenttypes_0002.html'
p2426
sg88
S'/usr/local/lib/python2.7/dist-packages/django/contrib/auth/migrations/0006_require_contenttypes_0002'
p2427
sg90
g13
(g14
g15
NtRp2428
(dp2429
g18
I1
sg19
I0
sg20
I5
sg21
I0
sg22
I0
sg23
I0
sg24
I0
sbssg126
S'\xcd\xb9\xeet\x16?\xc1l\x18\xb7\x14\xe6\x0e\xcd+='
p2430
ssS'_usr_local_lib_python2_7_dist-packages_django_contrib_staticfiles___init__'
p2431
(dp2432
g6
(dp2433
g8
S'_usr_local_lib_python2_7_dist-packages_django_contrib_staticfiles___init__.html'
p2434
sg10
S'/usr/local/lib/python2.7/dist-packages/django/contrib/staticfiles/__init__'
p2435
sg12
g13
(g14
g15
NtRp2436
(dp2437
g18
I1
sg19
I0
sg20
I1
sg21
I0
sg22
I0
sg23
I0
sg24
I0
sbssg25
S'o\xf4\x8a\xb6\x10I\xf4G\xa2_\xba$\xf9\xd2\xb1{'
p2438
ssS'_usr_local_lib_python2_7_dist-packages_django_contrib_admin_exceptions'
p2439
(dp2440
g6
(dp2441
g8
S'_usr_local_lib_python2_7_dist-packages_django_contrib_admin_exceptions.html'
p2442
sg10
S'/usr/local/lib/python2.7/dist-packages/django/contrib/admin/exceptions'
p2443
sg12
g13
(g14
g15
NtRp2444
(dp2445
g18
I1
sg19
I0
sg20
I5
sg21
I0
sg22
I0
sg23
I0
sg24
I0
sbssg25
S'J`\x85\xe1= \x00c\x95\xd7\x98\x0b\x0f\xf7\xf4\x7f'
p2446
ssS'_usr_local_lib_python2_7_dist-packages_django_contrib_admin_validation'
p2447
(dp2448
g6
(dp2449
g8
S'_usr_local_lib_python2_7_dist-packages_django_contrib_admin_validation.html'
p2450
sg10
S'/usr/local/lib/python2.7/dist-packages/django/contrib/admin/validation'
p2451
sg12
g13
(g14
g15
NtRp2452
(dp2453
g18
I1
sg19
I0
sg20
I258
sg21
I0
sg22
I0
sg23
I214
sg24
I0
sbssg25
S'\xc0k\xeaf\xb40\xcf\x10>\xf5:\xee\x8b\xd9\x1eq'
p2454
ssS'_usr_local_lib_python2_7_dist-packages_django_views_decorators_csrf'
p2455
(dp2456
g6
(dp2457
g8
S'_usr_local_lib_python2_7_dist-packages_django_views_decorators_csrf.html'
p2458
sg10
S'/usr/local/lib/python2.7/dist-packages/django/views/decorators/csrf'
p2459
sg12
g13
(g14
g15
NtRp2460
(dp2461
g18
I1
sg19
I0
sg20
I27
sg21
I0
sg22
I0
sg23
I9
sg24
I0
sbssg25
S'\x8f\xb9V\xb6\xf6\xeaX!>T\x18\x07\xde\xed\xfb\x03'
p2462
ssS'_usr_local_lib_python2_7_dist-packages_phonenumbers_asyoutypeformatter'
p2463
(dp2464
g6
(dp2465
g8
S'_usr_local_lib_python2_7_dist-packages_phonenumbers_asyoutypeformatter.html'
p2466
sg10
S'/usr/local/lib/python2.7/dist-packages/phonenumbers/asyoutypeformatter'
p2467
sg12
g13
(g14
g15
NtRp2468
(dp2469
g18
I1
sg19
I0
sg20
I304
sg21
I2
sg22
I0
sg23
I259
sg24
I0
sbssg25
S'\x15r\xdd\xb0\xf6\xfd{8\xd1\xb7\xfc\xac\xe4]JI'
p2470
ssS'_usr_local_lib_python2_7_dist-packages_django_contrib_admin_actions'
p2471
(dp2472
g6
(dp2473
g8
S'_usr_local_lib_python2_7_dist-packages_django_contrib_admin_actions.html'
p2474
sg10
S'/usr/local/lib/python2.7/dist-packages/django/contrib/admin/actions'
p2475
sg12
g13
(g14
g15
NtRp2476
(dp2477
g18
I1
sg19
I0
sg20
I36
sg21
I0
sg22
I0
sg23
I26
sg24
I0
sbssg25
S'\x1b^\xf8\xbb\xe7\xecj\xdb\xeb]\r\xb4\x88\x95\x9a@'
p2478
ssS'_usr_local_lib_python2_7_dist-packages_django_contrib_admin_migrations___init__'
p2479
(dp2480
g120
(dp2481
g86
S'_usr_local_lib_python2_7_dist-packages_django_contrib_admin_migrations___init__.html'
p2482
sg88
S'/usr/local/lib/python2.7/dist-packages/django/contrib/admin/migrations/__init__'
p2483
sg90
g13
(g14
g15
NtRp2484
(dp2485
g18
I1
sg19
I0
sg20
I0
sg21
I0
sg22
I0
sg23
I0
sg24
I0
sbssg126
S'\xb0\xc8pN\xaf>\xa0\xbaz\x144\xe0A9\xb8?'
p2486
ssS'_usr_local_lib_python2_7_dist-packages_crispy_forms_layout_slice'
p2487
(dp2488
g6
(dp2489
g8
S'_usr_local_lib_python2_7_dist-packages_crispy_forms_layout_slice.html'
p2490
sg10
S'/usr/local/lib/python2.7/dist-packages/crispy_forms/layout_slice'
p2491
sg12
g13
(g14
g15
NtRp2492
(dp2493
g18
I1
sg19
I0
sg20
I76
sg21
I0
sg22
I0
sg23
I62
sg24
I0
sbssg25
S'\xa0]B\xf2\xc2\x10\x95p\xcc"\xe1\xd6\xf4\xed\x92\xc8'
p2494
ssS'_usr_local_lib_python2_7_dist-packages_phonenumbers_unicode_util'
p2495
(dp2496
g6
(dp2497
g8
S'_usr_local_lib_python2_7_dist-packages_phonenumbers_unicode_util.html'
p2498
sg10
S'/usr/local/lib/python2.7/dist-packages/phonenumbers/unicode_util'
p2499
sg12
g13
(g14
g15
NtRp2500
(dp2501
g18
I1
sg19
I0
sg20
I290
sg21
I3
sg22
I0
sg23
I22
sg24
I0
sbssg25
S'Bz\xac\xaa[}\\\x97\x94\x94=l\xf8P\xbe\xe8'
p2502
ssS'_usr_local_lib_python2_7_dist-packages_phonenumbers_phonenumberutil'
p2503
(dp2504
g6
(dp2505
g8
S'_usr_local_lib_python2_7_dist-packages_phonenumbers_phonenumberutil.html'
p2506
sg10
S'/usr/local/lib/python2.7/dist-packages/phonenumbers/phonenumberutil'
p2507
sg12
g13
(g14
g15
NtRp2508
(dp2509
g18
I1
sg19
I0
sg20
I997
sg21
I13
sg22
I0
sg23
I807
sg24
I0
sbssg25
S'\xe6\x05\rg\x1e\xf2\x95\x83\xa4R\xc2"\xfb\xa9\xc7\x12'
p2510
ssS'_usr_local_lib_python2_7_dist-packages_phonenumbers_data_alt_format_7'
p2511
(dp2512
g6
(dp2513
g8
S'_usr_local_lib_python2_7_dist-packages_phonenumbers_data_alt_format_7.html'
p2514
sg10
S'/usr/local/lib/python2.7/dist-packages/phonenumbers/data/alt_format_7'
p2515
sg12
g13
(g14
g15
NtRp2516
(dp2517
g18
I1
sg19
I0
sg20
I2
sg21
I0
sg22
I0
sg23
I0
sg24
I0
sbssg25
S'\xd6\x8c;\xf6\xe7\xca8\x7f\xd1\xc2"\xcd\x08\x92\x14;'
p2518
ssS'_usr_local_lib_python2_7_dist-packages_django_db_migrations_graph'
p2519
(dp2520
g120
(dp2521
g86
S'_usr_local_lib_python2_7_dist-packages_django_db_migrations_graph.html'
p2522
sg88
S'/usr/local/lib/python2.7/dist-packages/django/db/migrations/graph'
p2523
sg90
g13
(g14
g15
NtRp2524
(dp2525
g18
I1
sg19
I0
sg20
I141
sg21
I0
sg22
I0
sg23
I44
sg24
I0
sbssg126
S'H\xafH\xf6\x8c\xd3\xd9\xfc\xcf\xe0FB\x88i\xde\xe4'
p2526
ssS'_usr_local_lib_python2_7_dist-packages_django_template_context'
p2527
(dp2528
g6
(dp2529
g8
S'_usr_local_lib_python2_7_dist-packages_django_template_context.html'
p2530
sg10
S'/usr/local/lib/python2.7/dist-packages/django/template/context'
p2531
sg12
g13
(g14
g15
NtRp2532
(dp2533
g18
I1
sg19
I0
sg20
I150
sg21
I0
sg22
I0
sg23
I105
sg24
I0
sbssg25
S'0\xd8\xb6\xb4A\xf9\xc5\xf3\xc7Q`.\xa2\x854{'
p2534
ssS'_usr_local_lib_python2_7_dist-packages_django_core_files_locks'
p2535
(dp2536
g6
(dp2537
g8
S'_usr_local_lib_python2_7_dist-packages_django_core_files_locks.html'
p2538
sg10
S'/usr/local/lib/python2.7/dist-packages/django/core/files/locks'
p2539
sg12
g13
(g14
g15
NtRp2540
(dp2541
g18
I1
sg19
I0
sg20
I57
sg21
I0
sg22
I0
sg23
I46
sg24
I0
sbssg25
S'F\xa8\xff]\xbc\xf7a\xeb\xe5\xcf\xddW\x994\xaeP'
p2542
ssS'_usr_local_lib_python2_7_dist-packages_django_db_migrations_topological_sort'
p2543
(dp2544
g120
(dp2545
g86
S'_usr_local_lib_python2_7_dist-packages_django_db_migrations_topological_sort.html'
p2546
sg88
S'/usr/local/lib/python2.7/dist-packages/django/db/migrations/topological_sort'
p2547
sg90
g13
(g14
g15
NtRp2548
(dp2549
g18
I1
sg19
I0
sg20
I15
sg21
I0
sg22
I0
sg23
I13
sg24
I0
sbssg126
S'0\xb0\xf3\xcd\xb6rqA\x00\x06\xb9\xb6\x06\x04\x10\xb3'
p2550
ssS'_usr_local_lib_python2_7_dist-packages_django_utils_termcolors'
p2551
(dp2552
g6
(dp2553
g86
S'_usr_local_lib_python2_7_dist-packages_django_utils_termcolors.html'
p2554
sg88
S'/usr/local/lib/python2.7/dist-packages/django/utils/termcolors'
p2555
sg90
g13
(g14
g15
NtRp2556
(dp2557
g18
I1
sg19
I0
sg20
I57
sg21
I0
sg22
I0
sg23
I22
sg24
I0
sbssg25
S':\xa2v\x01\xb3_]/N\xd3\x12\xd2\xa3\x82\xbar'
p2558
ssS'_usr_local_lib_python2_7_dist-packages_django_template_response'
p2559
(dp2560
g6
(dp2561
g8
S'_usr_local_lib_python2_7_dist-packages_django_template_response.html'
p2562
sg10
S'/usr/local/lib/python2.7/dist-packages/django/template/response'
p2563
sg12
g13
(g14
g15
NtRp2564
(dp2565
g18
I1
sg19
I0
sg20
I90
sg21
I0
sg22
I0
sg23
I63
sg24
I0
sbssg25
S'\x91\x80>`}<mzn\x112\x8e\xc2\xa1a\x11'
p2566
ssS'_usr_local_lib_python2_7_dist-packages_django_http_multipartparser'
p2567
(dp2568
g6
(dp2569
g8
S'_usr_local_lib_python2_7_dist-packages_django_http_multipartparser.html'
p2570
sg10
S'/usr/local/lib/python2.7/dist-packages/django/http/multipartparser'
p2571
sg12
g13
(g14
g15
NtRp2572
(dp2573
g18
I1
sg19
I0
sg20
I364
sg21
I0
sg22
I0
sg23
I307
sg24
I0
sbssg25
S'D\x13i\xc5\xc0sDuG(\xc7\tL\xe8L\xa4'
p2574
ssS'_usr_local_lib_python2_7_dist-packages_django_core_checks_compatibility_django_1_7_0'
p2575
(dp2576
g6
(dp2577
g8
S'_usr_local_lib_python2_7_dist-packages_django_core_checks_compatibility_django_1_7_0.html'
p2578
sg10
S'/usr/local/lib/python2.7/dist-packages/django/core/checks/compatibility/django_1_7_0'
p2579
sg12
g13
(g14
g15
NtRp2580
(dp2581
g18
I1
sg19
I0
sg20
I11
sg21
I0
sg22
I0
sg23
I7
sg24
I0
sbssg25
S'ij\xa9\xcd\x1a\x90V]\xfc\xc7\r\x1e\xab\x04jJ'
p2582
ssS'_usr_local_lib_python2_7_dist-packages_django_core_mail_message'
p2583
(dp2584
g6
(dp2585
g8
S'_usr_local_lib_python2_7_dist-packages_django_core_mail_message.html'
p2586
sg10
S'/usr/local/lib/python2.7/dist-packages/django/core/mail/message'
p2587
sg12
g13
(g14
g15
NtRp2588
(dp2589
g18
I1
sg19
I0
sg20
I252
sg21
I0
sg22
I0
sg23
I192
sg24
I0
sbssg25
S"\x15\xa5'9i<e\x1e\xa7\xce\xfd\x94z\xa4-("
p2590
ssS'_usr_local_lib_python2_7_dist-packages_django_utils_dateparse'
p2591
(dp2592
g6
(dp2593
g8
S'_usr_local_lib_python2_7_dist-packages_django_utils_dateparse.html'
p2594
sg10
S'/usr/local/lib/python2.7/dist-packages/django/utils/dateparse'
p2595
sg12
g13
(g14
g15
NtRp2596
(dp2597
g18
I1
sg19
I0
sg20
I50
sg21
I0
sg22
I0
sg23
I37
sg24
I0
sbssg25
S' +\xd5_\xcd\x10\x9e\xad\xd6\x98\xfa\xdc\x97E\xdeF'
p2598
ssS'_usr_local_lib_python2_7_dist-packages_django_db_models_deletion'
p2599
(dp2600
g6
(dp2601
g8
S'_usr_local_lib_python2_7_dist-packages_django_db_models_deletion.html'
p2602
sg10
S'/usr/local/lib/python2.7/dist-packages/django/db/models/deletion'
p2603
sg12
g13
(g14
g15
NtRp2604
(dp2605
g18
I1
sg19
I0
sg20
I167
sg21
I0
sg22
I0
sg23
I141
sg24
I0
sbssg25
S'8)\xfa\xaf\x14Y\xde\x18\xa6:\xef+\x8a\xd7\xdf\x91'
p2606
ssS'_usr_local_lib_python2_7_dist-packages_django_db_models_fields_related'
p2607
(dp2608
g6
(dp2609
g86
S'_usr_local_lib_python2_7_dist-packages_django_db_models_fields_related.html'
p2610
sg88
S'/usr/local/lib/python2.7/dist-packages/django/db/models/fields/related'
p2611
sg90
g13
(g14
g15
NtRp2612
(dp2613
g18
I1
sg19
I0
sg20
I1307
sg21
I0
sg22
I0
sg23
I794
sg24
I0
sbssg25
S'\xa8\xac7\x83\x84\xd5\x83\xfe\x1c\x9a\xff\x88\xa3\x96WZ'
p2614
ssS'_usr_local_lib_python2_7_dist-packages_django_utils_xmlutils'
p2615
(dp2616
g120
(dp2617
g86
S'_usr_local_lib_python2_7_dist-packages_django_utils_xmlutils.html'
p2618
sg88
S'/usr/local/lib/python2.7/dist-packages/django/utils/xmlutils'
p2619
sg90
g13
(g14
g15
NtRp2620
(dp2621
g18
I1
sg19
I0
sg20
I9
sg21
I0
sg22
I0
sg23
I6
sg24
I0
sbssg126
S'Z;\r+O\xda\xbe\xfb\xa0\xed9\x1c)\x1fW\xa6'
p2622
ssS'_usr_local_lib_python2_7_dist-packages_phonenumbers_data_alt_format_49'
p2623
(dp2624
g6
(dp2625
g8
S'_usr_local_lib_python2_7_dist-packages_phonenumbers_data_alt_format_49.html'
p2626
sg10
S'/usr/local/lib/python2.7/dist-packages/phonenumbers/data/alt_format_49'
p2627
sg12
g13
(g14
g15
NtRp2628
(dp2629
g18
I1
sg19
I0
sg20
I2
sg21
I0
sg22
I0
sg23
I0
sg24
I0
sbssg25
S'\x18D\xb1\xf9Zv\x9d\xacr\x80\x1e-8/\xb8\xd0'
p2630
ssS'_usr_local_lib_python2_7_dist-packages_django_utils_log'
p2631
(dp2632
g6
(dp2633
g8
S'_usr_local_lib_python2_7_dist-packages_django_utils_log.html'
p2634
sg10
S'/usr/local/lib/python2.7/dist-packages/django/utils/log'
p2635
sg12
g13
(g14
g15
NtRp2636
(dp2637
g18
I1
sg19
I0
sg20
I67
sg21
I0
sg22
I0
sg23
I27
sg24
I0
sbssg25
S'5\xbbY6\x00\x99\xab\xf1\xc7\x7f\x7f\xb8H\xc1\xaf\x80'
p2638
ssS'ipcms___init__'
p2639
(dp2640
g6
(dp2641
g8
S'ipcms___init__.html'
p2642
sg10
S'ipcms/__init__'
p2643
sg12
g13
(g14
g15
NtRp2644
(dp2645
g18
I1
sg19
I0
sg20
I0
sg21
I0
sg22
I0
sg23
I0
sg24
I0
sbssg25
S'\xb0\xc8pN\xaf>\xa0\xbaz\x144\xe0A9\xb8?'
p2646
ssS'_usr_local_lib_python2_7_dist-packages_django_utils_text'
p2647
(dp2648
g6
(dp2649
g8
S'_usr_local_lib_python2_7_dist-packages_django_utils_text.html'
p2650
sg10
S'/usr/local/lib/python2.7/dist-packages/django/utils/text'
p2651
sg12
g13
(g14
g15
NtRp2652
(dp2653
g18
I1
sg19
I0
sg20
I242
sg21
I0
sg22
I0
sg23
I177
sg24
I0
sbssg25
S'\x81cG\xfc\x0b\xe2.t\xe2+k\x9b4\xa9*\xef'
p2654
ssS'_usr_local_lib_python2_7_dist-packages_django_core_checks_security_base'
p2655
(dp2656
g6
(dp2657
g8
S'_usr_local_lib_python2_7_dist-packages_django_core_checks_security_base.html'
p2658
sg10
S'/usr/local/lib/python2.7/dist-packages/django/core/checks/security/base'
p2659
sg12
g13
(g14
g15
NtRp2660
(dp2661
g18
I1
sg19
I0
sg20
I48
sg21
I0
sg22
I0
sg23
I22
sg24
I0
sbssg25
S'\xe8Z\xc0\xd0\x1b-g\x07hM\xe1\xfb\x95\xd9\xe5p'
p2662
ssS'_usr_local_lib_python2_7_dist-packages_django_utils__os'
p2663
(dp2664
g6
(dp2665
g86
S'_usr_local_lib_python2_7_dist-packages_django_utils__os.html'
p2666
sg88
S'/usr/local/lib/python2.7/dist-packages/django/utils/_os'
p2667
sg90
g13
(g14
g15
NtRp2668
(dp2669
g18
I1
sg19
I0
sg20
I60
sg21
I0
sg22
I0
sg23
I32
sg24
I0
sbssg25
S'\xb2\xacx\xe4dK\x1c\x8b\x0fw\xe2\xd7?\xfa^ '
p2670
ssS'_usr_local_lib_python2_7_dist-packages_django_db_models_sql___init__'
p2671
(dp2672
g6
(dp2673
g8
S'_usr_local_lib_python2_7_dist-packages_django_db_models_sql___init__.html'
p2674
sg10
S'/usr/local/lib/python2.7/dist-packages/django/db/models/sql/__init__'
p2675
sg12
g13
(g14
g15
NtRp2676
(dp2677
g18
I1
sg19
I0
sg20
I5
sg21
I0
sg22
I0
sg23
I0
sg24
I0
sbssg25
S'\xee\x05~\x14<\xbd\xceO\xa9\xcf\xd3\t\x04\xfbDP'
p2678
ssS'_usr_local_lib_python2_7_dist-packages_django_forms_formsets'
p2679
(dp2680
g6
(dp2681
g8
S'_usr_local_lib_python2_7_dist-packages_django_forms_formsets.html'
p2682
sg10
S'/usr/local/lib/python2.7/dist-packages/django/forms/formsets'
p2683
sg12
g13
(g14
g15
NtRp2684
(dp2685
g18
I1
sg19
I0
sg20
I223
sg21
I0
sg22
I0
sg23
I160
sg24
I0
sbssg25
S'\xd6\r\x86\x9e\xa9\xa1\xe8\xa1\x96\xa8<\xdf\xdb\x9a\x10='
p2686
ssS'_usr_local_lib_python2_7_dist-packages_phonenumbers_data_alt_format_351'
p2687
(dp2688
g6
(dp2689
g8
S'_usr_local_lib_python2_7_dist-packages_phonenumbers_data_alt_format_351.html'
p2690
sg10
S'/usr/local/lib/python2.7/dist-packages/phonenumbers/data/alt_format_351'
p2691
sg12
g13
(g14
g15
NtRp2692
(dp2693
g18
I1
sg19
I0
sg20
I2
sg21
I0
sg22
I0
sg23
I0
sg24
I0
sbssg25
S'(Y\x91A-<5X\xdc\x9e@\xe1\x96`T\x80'
p2694
ssS'_usr_local_lib_python2_7_dist-packages_phonenumbers_data_alt_format_350'
p2695
(dp2696
g6
(dp2697
g8
S'_usr_local_lib_python2_7_dist-packages_phonenumbers_data_alt_format_350.html'
p2698
sg10
S'/usr/local/lib/python2.7/dist-packages/phonenumbers/data/alt_format_350'
p2699
sg12
g13
(g14
g15
NtRp2700
(dp2701
g18
I1
sg19
I0
sg20
I2
sg21
I0
sg22
I0
sg23
I0
sg24
I0
sbssg25
S'\xd0iL{\xc9D#\xf6\xb3I"\xbe\n\xf1\xd5\x98'
p2702
ssS'_usr_local_lib_python2_7_dist-packages_crispy_forms_bootstrap'
p2703
(dp2704
g6
(dp2705
g8
S'_usr_local_lib_python2_7_dist-packages_crispy_forms_bootstrap.html'
p2706
sg10
S'/usr/local/lib/python2.7/dist-packages/crispy_forms/bootstrap'
p2707
sg12
g13
(g14
g15
NtRp2708
(dp2709
g18
I1
sg19
I0
sg20
I165
sg21
I0
sg22
I0
sg23
I98
sg24
I0
sbssg25
S'\xd0\x8f\xd4\x17b5\xc0\xb3\x01h5\x1f\x98\xbdz\xfb'
p2710
ssS'_usr_local_lib_python2_7_dist-packages_django_test_testcases'
p2711
(dp2712
g6
(dp2713
g8
S'_usr_local_lib_python2_7_dist-packages_django_test_testcases.html'
p2714
sg10
S'/usr/local/lib/python2.7/dist-packages/django/test/testcases'
p2715
sg12
g13
(g14
g15
NtRp2716
(dp2717
g18
I1
sg19
I0
sg20
I643
sg21
I0
sg22
I0
sg23
I500
sg24
I0
sbssg25
S'5w\xd3\xeb\xc5\x840\xa8\xa6\xa2\x99\xee\xed\x1b\xaa.'
p2718
ssS'_usr_local_lib_python2_7_dist-packages_django_forms_fields'
p2719
(dp2720
g6
(dp2721
g8
S'_usr_local_lib_python2_7_dist-packages_django_forms_fields.html'
p2722
sg10
S'/usr/local/lib/python2.7/dist-packages/django/forms/fields'
p2723
sg12
g13
(g14
g15
NtRp2724
(dp2725
g18
I1
sg19
I0
sg20
I723
sg21
I0
sg22
I0
sg23
I483
sg24
I0
sbssg25
S'\x0b\x17w\xf2V\x15T\x17\x90\x7f\x82\xf4\xa8D\xb6\xc1'
p2726
ssS'_usr_local_lib_python2_7_dist-packages_django_db_migrations___init__'
p2727
(dp2728
g120
(dp2729
g86
S'_usr_local_lib_python2_7_dist-packages_django_db_migrations___init__.html'
p2730
sg88
S'/usr/local/lib/python2.7/dist-packages/django/db/migrations/__init__'
p2731
sg90
g13
(g14
g15
NtRp2732
(dp2733
g18
I1
sg19
I0
sg20
I2
sg21
I0
sg22
I0
sg23
I0
sg24
I0
sbssg126
S'\xe3A\xfdeM\xdcG\r\xfe\x11\x0cB\xe4\xb8\x00]'
p2734
ssS'_usr_local_lib_python2_7_dist-packages_django_contrib___init__'
p2735
(dp2736
g6
(dp2737
g8
S'_usr_local_lib_python2_7_dist-packages_django_contrib___init__.html'
p2738
sg10
S'/usr/local/lib/python2.7/dist-packages/django/contrib/__init__'
p2739
sg12
g13
(g14
g15
NtRp2740
(dp2741
g18
I1
sg19
I0
sg20
I0
sg21
I0
sg22
I0
sg23
I0
sg24
I0
sbssg25
S'\xb0\xc8pN\xaf>\xa0\xbaz\x144\xe0A9\xb8?'
p2742
ssS'_usr_local_lib_python2_7_dist-packages_django_core_servers___init__'
p2743
(dp2744
g6
(dp2745
g8
S'_usr_local_lib_python2_7_dist-packages_django_core_servers___init__.html'
p2746
sg10
S'/usr/local/lib/python2.7/dist-packages/django/core/servers/__init__'
p2747
sg12
g13
(g14
g15
NtRp2748
(dp2749
g18
I1
sg19
I0
sg20
I0
sg21
I0
sg22
I0
sg23
I0
sg24
I0
sbssg25
S'\xb0\xc8pN\xaf>\xa0\xbaz\x144\xe0A9\xb8?'
p2750
ssS'_usr_local_lib_python2_7_dist-packages_django_core_cache_backends_locmem'
p2751
(dp2752
g120
(dp2753
g86
S'_usr_local_lib_python2_7_dist-packages_django_core_cache_backends_locmem.html'
p2754
sg88
S'/usr/local/lib/python2.7/dist-packages/django/core/cache/backends/locmem'
p2755
sg90
g13
(g14
g15
NtRp2756
(dp2757
g18
I1
sg19
I0
sg20
I109
sg21
I0
sg22
I0
sg23
I82
sg24
I0
sbssg126
S'\x179\'@!\x05|\xb1\xa8U\xba"\xc1x\x82b'
p2758
ssS'_usr_local_lib_python2_7_dist-packages_django_contrib_auth_migrations_0003_alter_user_email_max_length'
p2759
(dp2760
g120
(dp2761
g86
S'_usr_local_lib_python2_7_dist-packages_django_contrib_auth_migrations_0003_alter_user_email_max_length.html'
p2762
sg88
S'/usr/local/lib/python2.7/dist-packages/django/contrib/auth/migrations/0003_alter_user_email_max_length'
p2763
sg90
g13
(g14
g15
NtRp2764
(dp2765
g18
I1
sg19
I0
sg20
I5
sg21
I0
sg22
I0
sg23
I0
sg24
I0
sbssg126
S'h~i\x05\xaf\xb4\xac\xe9.\xa9Z\xd2b\xc4q\xa2'
p2766
ssS'_usr_local_lib_python2_7_dist-packages_django_db_migrations_writer'
p2767
(dp2768
g120
(dp2769
g86
S'_usr_local_lib_python2_7_dist-packages_django_db_migrations_writer.html'
p2770
sg88
S'/usr/local/lib/python2.7/dist-packages/django/db/migrations/writer'
p2771
sg90
g13
(g14
g15
NtRp2772
(dp2773
g18
I1
sg19
I0
sg20
I314
sg21
I0
sg22
I0
sg23
I270
sg24
I0
sbssg126
S'\xf9.\x02cmU#G\xbf\xce\xee\xf5\xf0d\xdb\xcf'
p2774
ssS'_usr_local_lib_python2_7_dist-packages_phonenumbers_data_alt_format_595'
p2775
(dp2776
g6
(dp2777
g8
S'_usr_local_lib_python2_7_dist-packages_phonenumbers_data_alt_format_595.html'
p2778
sg10
S'/usr/local/lib/python2.7/dist-packages/phonenumbers/data/alt_format_595'
p2779
sg12
g13
(g14
g15
NtRp2780
(dp2781
g18
I1
sg19
I0
sg20
I2
sg21
I0
sg22
I0
sg23
I0
sg24
I0
sbssg25
S'"\x99\xd6\xfa&\xa67\xdfg\xd3Vq\x8a \x99\x92'
p2782
ssS'_usr_local_lib_python2_7_dist-packages_django_dispatch_weakref_backports'
p2783
(dp2784
g6
(dp2785
g8
S'_usr_local_lib_python2_7_dist-packages_django_dispatch_weakref_backports.html'
p2786
sg10
S'/usr/local/lib/python2.7/dist-packages/django/dispatch/weakref_backports'
p2787
sg12
g13
(g14
g15
NtRp2788
(dp2789
g18
I1
sg19
I0
sg20
I40
sg21
I0
sg22
I0
sg23
I18
sg24
I0
sbssg25
S'\x94c V\xe8\xd2>\xc4\xc3\x88\x850@\x95\xea\x19'
p2790
ssS'_usr_local_lib_python2_7_dist-packages_phonenumbers_data_alt_format_55'
p2791
(dp2792
g6
(dp2793
g8
S'_usr_local_lib_python2_7_dist-packages_phonenumbers_data_alt_format_55.html'
p2794
sg10
S'/usr/local/lib/python2.7/dist-packages/phonenumbers/data/alt_format_55'
p2795
sg12
g13
(g14
g15
NtRp2796
(dp2797
g18
I1
sg19
I0
sg20
I2
sg21
I0
sg22
I0
sg23
I0
sg24
I0
sbssg25
S'\xe1\x82\xe81o%aD\xa0\x80\x17t_\xa3\xe3\x87'
p2798
ssS'_usr_local_lib_python2_7_dist-packages_django_template_defaulttags'
p2799
(dp2800
g6
(dp2801
g8
S'_usr_local_lib_python2_7_dist-packages_django_template_defaulttags.html'
p2802
sg10
S'/usr/local/lib/python2.7/dist-packages/django/template/defaulttags'
p2803
sg12
g13
(g14
g15
NtRp2804
(dp2805
g18
I1
sg19
I0
sg20
I659
sg21
I0
sg22
I0
sg23
I533
sg24
I0
sbssg25
S'\xe52\xd1\xea\xecwW!;\x83\x01di\x8c)\xa0'
p2806
ssS'_usr_local_lib_python2_7_dist-packages_django_core_handlers_wsgi'
p2807
(dp2808
g6
(dp2809
g8
S'_usr_local_lib_python2_7_dist-packages_django_core_handlers_wsgi.html'
p2810
sg10
S'/usr/local/lib/python2.7/dist-packages/django/core/handlers/wsgi'
p2811
sg12
g13
(g14
g15
NtRp2812
(dp2813
g18
I1
sg19
I0
sg20
I161
sg21
I0
sg22
I0
sg23
I116
sg24
I0
sbssg25
S'\x15\xab\xf9\x1b%\xe8\x98\xfa\x82\xe7\x86\xbf\x1c\x9a%\x93'
p2814
ssS'_usr_local_lib_python2_7_dist-packages_django_db_migrations_migration'
p2815
(dp2816
g120
(dp2817
g86
S'_usr_local_lib_python2_7_dist-packages_django_db_migrations_migration.html'
p2818
sg88
S'/usr/local/lib/python2.7/dist-packages/django/db/migrations/migration'
p2819
sg90
g13
(g14
g15
NtRp2820
(dp2821
g18
I1
sg19
I0
sg20
I82
sg21
I0
sg22
I0
sg23
I34
sg24
I0
sbssg126
S'\x0eZz0h\xb7\xd8\x95\x95\x8f\xc1\x0f\x7f\x9c\xec2'
p2822
ssS'_usr_local_lib_python2_7_dist-packages_django_contrib_sessions_models'
p2823
(dp2824
g6
(dp2825
g8
S'_usr_local_lib_python2_7_dist-packages_django_contrib_sessions_models.html'
p2826
sg10
S'/usr/local/lib/python2.7/dist-packages/django/contrib/sessions/models'
p2827
sg12
g13
(g14
g15
NtRp2828
(dp2829
g18
I1
sg19
I0
sg20
I29
sg21
I0
sg22
I0
sg23
I8
sg24
I0
sbssg25
S'X\x9e\xd9\x8f\xb0\x83\xc0\xed\xc5\x9eJ\x98\x1a\xfbP%'
p2830
ssS'_usr_local_lib_python2_7_dist-packages_django_test_signals'
p2831
(dp2832
g6
(dp2833
g8
S'_usr_local_lib_python2_7_dist-packages_django_test_signals.html'
p2834
sg10
S'/usr/local/lib/python2.7/dist-packages/django/test/signals'
p2835
sg12
g13
(g14
g15
NtRp2836
(dp2837
g18
I1
sg19
I0
sg20
I96
sg21
I0
sg22
I0
sg23
I71
sg24
I0
sbssg25
S'\xf6\x19W\xd6"\x82u\xc48\x1a3\xd2\xe1\xec\xdf\xfc'
p2838
ssS'_usr_local_lib_python2_7_dist-packages_django_core_validators'
p2839
(dp2840
g6
(dp2841
g8
S'_usr_local_lib_python2_7_dist-packages_django_core_validators.html'
p2842
sg10
S'/usr/local/lib/python2.7/dist-packages/django/core/validators'
p2843
sg12
g13
(g14
g15
NtRp2844
(dp2845
g18
I1
sg19
I0
sg20
I192
sg21
I0
sg22
I0
sg23
I83
sg24
I0
sbssg25
S'\xa1\xb7o\xf0;\x8e\xfb\x96\xe8\xb1\xb8\x7fqF\x0cW'
p2846
ssS'_usr_local_lib_python2_7_dist-packages_django_contrib_contenttypes_checks'
p2847
(dp2848
g6
(dp2849
g8
S'_usr_local_lib_python2_7_dist-packages_django_contrib_contenttypes_checks.html'
p2850
sg10
S'/usr/local/lib/python2.7/dist-packages/django/contrib/contenttypes/checks'
p2851
sg12
g13
(g14
g15
NtRp2852
(dp2853
g18
I1
sg19
I0
sg20
I10
sg21
I0
sg22
I0
sg23
I6
sg24
I0
sbssg25
S'\x8e\xd1dp\xc8=\xa0\x815\xb2\x87\xdb\xbe\xd7\x06t'
p2854
ssS'_usr_local_lib_python2_7_dist-packages_django_views_debug'
p2855
(dp2856
g6
(dp2857
g8
S'_usr_local_lib_python2_7_dist-packages_django_views_debug.html'
p2858
sg10
S'/usr/local/lib/python2.7/dist-packages/django/views/debug'
p2859
sg12
g13
(g14
g15
NtRp2860
(dp2861
g18
I1
sg19
I0
sg20
I330
sg21
I0
sg22
I0
sg23
I276
sg24
I0
sbssg25
S'\xb6\xdb\xd2\xa2\xec\xa4\xa3\xc8\x12N\xfb\xa6\x1e\x8f/>'
p2862
ssS'_usr_local_lib_python2_7_dist-packages_django_core_cache___init__'
p2863
(dp2864
g6
(dp2865
g86
S'_usr_local_lib_python2_7_dist-packages_django_core_cache___init__.html'
p2866
sg88
S'/usr/local/lib/python2.7/dist-packages/django/core/cache/__init__'
p2867
sg90
g13
(g14
g15
NtRp2868
(dp2869
g18
I1
sg19
I0
sg20
I72
sg21
I0
sg22
I0
sg23
I26
sg24
I0
sbssg25
S'\xa3\xb6Um7\xaco"\x8c\xc7\x9b\xc2\x08P\xf4E'
p2870
ssS'_usr_local_lib_python2_7_dist-packages_django_contrib_admin_models'
p2871
(dp2872
g6
(dp2873
g8
S'_usr_local_lib_python2_7_dist-packages_django_contrib_admin_models.html'
p2874
sg10
S'/usr/local/lib/python2.7/dist-packages/django/contrib/admin/models'
p2875
sg12
g13
(g14
g15
NtRp2876
(dp2877
g18
I1
sg19
I0
sg20
I57
sg21
I0
sg22
I0
sg23
I21
sg24
I0
sbssg25
S'\x80\xba\x85\xean\xcc\x9c\xa2\x84\xf4\xd3\x02\xc5\x8c\xf2\xd2'
p2878
ssS'_usr_local_lib_python2_7_dist-packages_django_apps___init__'
p2879
(dp2880
g6
(dp2881
g8
S'_usr_local_lib_python2_7_dist-packages_django_apps___init__.html'
p2882
sg10
S'/usr/local/lib/python2.7/dist-packages/django/apps/__init__'
p2883
sg12
g13
(g14
g15
NtRp2884
(dp2885
g18
I1
sg19
I0
sg20
I2
sg21
I0
sg22
I0
sg23
I0
sg24
I0
sbssg25
S'\x0c%\xf7&\xe8\xc2\xf7\xc3\xbe\xae,\xc0\xc1?\x18g'
p2886
ssS'_usr_local_lib_python2_7_dist-packages_django_utils_datetime_safe'
p2887
(dp2888
g6
(dp2889
g8
S'_usr_local_lib_python2_7_dist-packages_django_utils_datetime_safe.html'
p2890
sg10
S'/usr/local/lib/python2.7/dist-packages/django/utils/datetime_safe'
p2891
sg12
g13
(g14
g15
NtRp2892
(dp2893
g18
I1
sg19
I0
sg20
I58
sg21
I0
sg22
I0
sg23
I42
sg24
I0
sbssg25
S'\xdb2\xd6|\xd2&\xa9D\x8b\xe2\x13\x99\xc8\xfe\xa58'
p2894
ssS'_usr_local_lib_python2_7_dist-packages_phonenumbers_phonenumber'
p2895
(dp2896
g6
(dp2897
g8
S'_usr_local_lib_python2_7_dist-packages_phonenumbers_phonenumber.html'
p2898
sg10
S'/usr/local/lib/python2.7/dist-packages/phonenumbers/phonenumber'
p2899
sg12
g13
(g14
g15
NtRp2900
(dp2901
g18
I1
sg19
I0
sg20
I79
sg21
I0
sg22
I0
sg23
I61
sg24
I0
sbssg25
S'\x0f\x19\xc0\x9bPk\x12\x89.\x84S\x91j\x96\x14\x81'
p2902
ssS'_usr_local_lib_python2_7_dist-packages_phonenumbers_data_alt_format_58'
p2903
(dp2904
g6
(dp2905
g8
S'_usr_local_lib_python2_7_dist-packages_phonenumbers_data_alt_format_58.html'
p2906
sg10
S'/usr/local/lib/python2.7/dist-packages/phonenumbers/data/alt_format_58'
p2907
sg12
g13
(g14
g15
NtRp2908
(dp2909
g18
I1
sg19
I0
sg20
I2
sg21
I0
sg22
I0
sg23
I0
sg24
I0
sbssg25
S'pw\xf5\xd3\xfd\xad\x11|\xd1\x12\xff\xcf\xb0b4\xc7'
p2910
ssS'_usr_local_lib_python2_7_dist-packages_django_forms_utils'
p2911
(dp2912
g6
(dp2913
g8
S'_usr_local_lib_python2_7_dist-packages_django_forms_utils.html'
p2914
sg10
S'/usr/local/lib/python2.7/dist-packages/django/forms/utils'
p2915
sg12
g13
(g14
g15
NtRp2916
(dp2917
g18
I1
sg19
I0
sg20
I98
sg21
I0
sg22
I0
sg23
I58
sg24
I0
sbssg25
S'zM\xb6\xd0\xee\x04\xc0\xe1nG-\xd5\xb2\xd2\xd4\xc0'
p2918
ssS'_usr_local_lib_python2_7_dist-packages_django_contrib_auth_forms'
p2919
(dp2920
g6
(dp2921
g8
S'_usr_local_lib_python2_7_dist-packages_django_contrib_auth_forms.html'
p2922
sg10
S'/usr/local/lib/python2.7/dist-packages/django/contrib/auth/forms'
p2923
sg12
g13
(g14
g15
NtRp2924
(dp2925
g18
I1
sg19
I0
sg20
I178
sg21
I0
sg22
I0
sg23
I100
sg24
I0
sbssg25
S'W\xd1\xa9\xe5\xfcC\xca\x14\x0cT\x05\xac5BP\x91'
p2926
ssS'_usr_local_lib_python2_7_dist-packages_phonenumbers_data_alt_format_54'
p2927
(dp2928
g6
(dp2929
g8
S'_usr_local_lib_python2_7_dist-packages_phonenumbers_data_alt_format_54.html'
p2930
sg10
S'/usr/local/lib/python2.7/dist-packages/phonenumbers/data/alt_format_54'
p2931
sg12
g13
(g14
g15
NtRp2932
(dp2933
g18
I1
sg19
I0
sg20
I2
sg21
I0
sg22
I0
sg23
I0
sg24
I0
sbssg25
S'\xd2\xa6\xb86\xefpA\x83\xba%\xee\xeb\x11\x0b\x8dD'
p2934
ssS'_usr_local_lib_python2_7_dist-packages_phonenumber_field_validators'
p2935
(dp2936
g6
(dp2937
g8
S'_usr_local_lib_python2_7_dist-packages_phonenumber_field_validators.html'
p2938
sg10
S'/usr/local/lib/python2.7/dist-packages/phonenumber_field/validators'
p2939
sg12
g13
(g14
g15
NtRp2940
(dp2941
g18
I1
sg19
I0
sg20
I8
sg21
I0
sg22
I0
sg23
I3
sg24
I0
sbssg25
S'y\x0e\x1e\xa9\t\x98]\xea\x9b-\x9b9\x9e\xf4\xb5\xf2'
p2942
ssS'_usr_local_lib_python2_7_dist-packages_django___init__'
p2943
(dp2944
g6
(dp2945
g8
S'_usr_local_lib_python2_7_dist-packages_django___init__.html'
p2946
sg10
S'/usr/local/lib/python2.7/dist-packages/django/__init__'
p2947
sg12
g13
(g14
g15
NtRp2948
(dp2949
g18
I1
sg19
I0
sg20
I9
sg21
I0
sg22
I0
sg23
I0
sg24
I0
sbssg25
S'\xd6k\xb5\xc0\x199)~\xfd4\x1a\xf8\xec]O\xe9'
p2950
sssS'version'
p2951
S'3.6'
p2952
sS'settings'
p2953
S'3\xcf\xa1\x19.\x88o$\x8cA\xde\xbd\xcd\x06\xa1\x0f'
p2954
sS'format'
p2955
I1
s.